   1               		.file	"softpwm_led.c"
   2               	__SP_H__ = 0x3e
   3               	__SP_L__ = 0x3d
   4               	__SREG__ = 0x3f
   5               	__tmp_reg__ = 0
   6               	__zero_reg__ = 1
   7               		.text
   8               	.Ltext0:
   9               		.cfi_sections	.debug_frame
  10               		.section	.text.softpwm_init,"ax",@progbits
  11               	.global	softpwm_init
  13               	softpwm_init:
  14               	.LFB1:
  15               		.file 1 "../../tmk_core_custom/common/softpwm_led.c"
   1:../../tmk_core_custom/common/softpwm_led.c **** #include <avr/io.h>
   2:../../tmk_core_custom/common/softpwm_led.c **** #include <avr/interrupt.h>
   3:../../tmk_core_custom/common/softpwm_led.c **** #include <avr/pgmspace.h>
   4:../../tmk_core_custom/common/softpwm_led.c **** #include "led.h"
   5:../../tmk_core_custom/common/softpwm_led.c **** #include "softpwm_led.h"
   6:../../tmk_core_custom/common/softpwm_led.c **** #include "debug.h"
   7:../../tmk_core_custom/common/softpwm_led.c **** 
   8:../../tmk_core_custom/common/softpwm_led.c **** #define SOFTPWM_LED_FREQ 64
   9:../../tmk_core_custom/common/softpwm_led.c **** #define SOFTPWM_LED_TIMER_TOP F_CPU / (256 * SOFTPWM_LED_FREQ)
  10:../../tmk_core_custom/common/softpwm_led.c **** 
  11:../../tmk_core_custom/common/softpwm_led.c **** static uint8_t softpwm_led_state = 0;
  12:../../tmk_core_custom/common/softpwm_led.c **** static uint8_t softpwm_led_ocr[LED_COUNT] = {0};
  13:../../tmk_core_custom/common/softpwm_led.c **** static uint8_t softpwm_led_ocr_buff[LED_COUNT] = {0};
  14:../../tmk_core_custom/common/softpwm_led.c **** 
  15:../../tmk_core_custom/common/softpwm_led.c **** #ifdef FADING_LED_ENABLE
  16:../../tmk_core_custom/common/softpwm_led.c **** static void fading_led_proc(void);
  17:../../tmk_core_custom/common/softpwm_led.c **** #else
  18:../../tmk_core_custom/common/softpwm_led.c **** #define fading_led_proc()
  19:../../tmk_core_custom/common/softpwm_led.c **** #endif
  20:../../tmk_core_custom/common/softpwm_led.c **** 
  21:../../tmk_core_custom/common/softpwm_led.c **** #ifdef BREATHING_LED_ENABLE
  22:../../tmk_core_custom/common/softpwm_led.c **** static void breathing_led_proc(void);
  23:../../tmk_core_custom/common/softpwm_led.c **** #else
  24:../../tmk_core_custom/common/softpwm_led.c **** #define fading_led_proc()
  25:../../tmk_core_custom/common/softpwm_led.c **** #endif
  26:../../tmk_core_custom/common/softpwm_led.c **** 
  27:../../tmk_core_custom/common/softpwm_led.c **** void softpwm_init(void)
  28:../../tmk_core_custom/common/softpwm_led.c **** {
  16               		.loc 1 28 0
  17               		.cfi_startproc
  18               	/* prologue: function */
  19               	/* frame size = 0 */
  20               	/* stack size = 0 */
  21               	.L__stack_usage = 0
  29:../../tmk_core_custom/common/softpwm_led.c **** #ifdef SOFTPWM_LED_TIMER3
  30:../../tmk_core_custom/common/softpwm_led.c ****     /* Timer3 setup */
  31:../../tmk_core_custom/common/softpwm_led.c ****     /* CTC mode */
  32:../../tmk_core_custom/common/softpwm_led.c ****     TCCR3B |= (1<<WGM32);
  33:../../tmk_core_custom/common/softpwm_led.c ****     /* Clock selelct: clk/8 */
  34:../../tmk_core_custom/common/softpwm_led.c ****     TCCR3B |= (1<<CS30);
  35:../../tmk_core_custom/common/softpwm_led.c ****     /* Set TOP value */
  36:../../tmk_core_custom/common/softpwm_led.c ****     uint8_t sreg = SREG;
  37:../../tmk_core_custom/common/softpwm_led.c ****     cli();
  38:../../tmk_core_custom/common/softpwm_led.c ****     OCR3AH = (SOFTPWM_LED_TIMER_TOP >> 8) & 0xff;
  39:../../tmk_core_custom/common/softpwm_led.c ****     OCR3AL = SOFTPWM_LED_TIMER_TOP & 0xff;
  40:../../tmk_core_custom/common/softpwm_led.c ****     SREG = sreg;
  41:../../tmk_core_custom/common/softpwm_led.c **** #else
  42:../../tmk_core_custom/common/softpwm_led.c ****     /* Timer1 setup */
  43:../../tmk_core_custom/common/softpwm_led.c ****     /* CTC mode */
  44:../../tmk_core_custom/common/softpwm_led.c ****     TCCR1B |= (1<<WGM12);
  22               		.loc 1 44 0
  23 0000 E1E8      		ldi r30,lo8(-127)
  24 0002 F0E0      		ldi r31,0
  25 0004 8081      		ld r24,Z
  26 0006 8860      		ori r24,lo8(8)
  27 0008 8083      		st Z,r24
  45:../../tmk_core_custom/common/softpwm_led.c ****     /* Clock selelct: clk/8 */
  46:../../tmk_core_custom/common/softpwm_led.c ****     TCCR1B |= (1<<CS10);
  28               		.loc 1 46 0
  29 000a 8081      		ld r24,Z
  30 000c 8160      		ori r24,lo8(1)
  31 000e 8083      		st Z,r24
  47:../../tmk_core_custom/common/softpwm_led.c ****     /* Set TOP value */
  48:../../tmk_core_custom/common/softpwm_led.c ****     uint8_t sreg = SREG;
  32               		.loc 1 48 0
  33 0010 8FB7      		in r24,__SREG__
  34               	.LVL0:
  49:../../tmk_core_custom/common/softpwm_led.c ****     cli();
  35               		.loc 1 49 0
  36               	/* #APP */
  37               	 ;  49 "../../tmk_core_custom/common/softpwm_led.c" 1
  38 0012 F894      		cli
  39               	 ;  0 "" 2
  50:../../tmk_core_custom/common/softpwm_led.c ****     OCR1AH = (SOFTPWM_LED_TIMER_TOP >> 8) & 0xff;
  40               		.loc 1 50 0
  41               	/* #NOAPP */
  42 0014 93E0      		ldi r25,lo8(3)
  43 0016 9093 8900 		sts 137,r25
  51:../../tmk_core_custom/common/softpwm_led.c ****     OCR1AL = SOFTPWM_LED_TIMER_TOP & 0xff;
  44               		.loc 1 51 0
  45 001a 90ED      		ldi r25,lo8(-48)
  46 001c 9093 8800 		sts 136,r25
  52:../../tmk_core_custom/common/softpwm_led.c ****     SREG = sreg;
  47               		.loc 1 52 0
  48 0020 8FBF      		out __SREG__,r24
  53:../../tmk_core_custom/common/softpwm_led.c **** #endif
  54:../../tmk_core_custom/common/softpwm_led.c ****     softpwm_led_init();
  49               		.loc 1 54 0
  50 0022 0C94 0000 		jmp softpwm_led_init
  51               	.LVL1:
  52               		.cfi_endproc
  53               	.LFE1:
  55               		.section	.text.softpwm_led_enable,"ax",@progbits
  56               	.global	softpwm_led_enable
  58               	softpwm_led_enable:
  59               	.LFB2:
  55:../../tmk_core_custom/common/softpwm_led.c **** }
  56:../../tmk_core_custom/common/softpwm_led.c **** 
  57:../../tmk_core_custom/common/softpwm_led.c **** void softpwm_led_enable(void)
  58:../../tmk_core_custom/common/softpwm_led.c **** {
  60               		.loc 1 58 0
  61               		.cfi_startproc
  62               	/* prologue: function */
  63               	/* frame size = 0 */
  64               	/* stack size = 0 */
  65               	.L__stack_usage = 0
  59:../../tmk_core_custom/common/softpwm_led.c ****     /* Enable Compare Match Interrupt */
  60:../../tmk_core_custom/common/softpwm_led.c **** #ifdef SOFTPWM_LED_TIMER3
  61:../../tmk_core_custom/common/softpwm_led.c ****     TIMSK3 |= (1<<OCIE3A);
  62:../../tmk_core_custom/common/softpwm_led.c ****     //dprintf("softpwm led on: %u\n", TIMSK3 & (1<<OCIE3A));
  63:../../tmk_core_custom/common/softpwm_led.c **** #else
  64:../../tmk_core_custom/common/softpwm_led.c ****     TIMSK1 |= (1<<OCIE1A);
  66               		.loc 1 64 0
  67 0000 EFE6      		ldi r30,lo8(111)
  68 0002 F0E0      		ldi r31,0
  69 0004 8081      		ld r24,Z
  70 0006 8260      		ori r24,lo8(2)
  71 0008 8083      		st Z,r24
  65:../../tmk_core_custom/common/softpwm_led.c ****     //dprintf("softpwm led on: %u\n", TIMSK1 & (1<<OCIE1A));
  66:../../tmk_core_custom/common/softpwm_led.c **** #endif
  67:../../tmk_core_custom/common/softpwm_led.c ****     softpwm_led_state = 1;
  72               		.loc 1 67 0
  73 000a 81E0      		ldi r24,lo8(1)
  74 000c 8093 0000 		sts softpwm_led_state,r24
  68:../../tmk_core_custom/common/softpwm_led.c **** #ifdef LEDMAP_ENABLE
  69:../../tmk_core_custom/common/softpwm_led.c ****     softpwm_led_state_change(softpwm_led_state);
  75               		.loc 1 69 0
  76 0010 0C94 0000 		jmp softpwm_led_state_change
  77               	.LVL2:
  78               		.cfi_endproc
  79               	.LFE2:
  81               		.section	.text.softpwm_led_disable,"ax",@progbits
  82               	.global	softpwm_led_disable
  84               	softpwm_led_disable:
  85               	.LFB3:
  70:../../tmk_core_custom/common/softpwm_led.c **** #endif
  71:../../tmk_core_custom/common/softpwm_led.c **** }
  72:../../tmk_core_custom/common/softpwm_led.c **** 
  73:../../tmk_core_custom/common/softpwm_led.c **** void softpwm_led_disable(void)
  74:../../tmk_core_custom/common/softpwm_led.c **** {
  86               		.loc 1 74 0
  87               		.cfi_startproc
  88 0000 CF93      		push r28
  89               	.LCFI0:
  90               		.cfi_def_cfa_offset 3
  91               		.cfi_offset 28, -2
  92               	/* prologue: function */
  93               	/* frame size = 0 */
  94               	/* stack size = 1 */
  95               	.L__stack_usage = 1
  75:../../tmk_core_custom/common/softpwm_led.c ****     /* Disable Compare Match Interrupt */
  76:../../tmk_core_custom/common/softpwm_led.c **** #ifdef SOFTPWM_LED_TIMER3
  77:../../tmk_core_custom/common/softpwm_led.c ****     TIMSK3 &= ~(1<<OCIE3A);
  78:../../tmk_core_custom/common/softpwm_led.c ****     //dprintf("softpwm led off: %u\n", TIMSK3 & (1<<OCIE3A));
  79:../../tmk_core_custom/common/softpwm_led.c **** #else
  80:../../tmk_core_custom/common/softpwm_led.c ****     TIMSK1 &= ~(1<<OCIE1A);
  96               		.loc 1 80 0
  97 0002 8091 6F00 		lds r24,111
  98 0006 8D7F      		andi r24,lo8(-3)
  99 0008 8093 6F00 		sts 111,r24
  81:../../tmk_core_custom/common/softpwm_led.c ****     //dprintf("softpwm led off: %u\n", TIMSK1 & (1<<OCIE1A));
  82:../../tmk_core_custom/common/softpwm_led.c **** #endif
  83:../../tmk_core_custom/common/softpwm_led.c ****     softpwm_led_state = 0;
 100               		.loc 1 83 0
 101 000c 1092 0000 		sts softpwm_led_state,__zero_reg__
 102               	.LVL3:
 103               	.LBB2:
  84:../../tmk_core_custom/common/softpwm_led.c ****     for (uint8_t i = 0; i < LED_COUNT; i++) {
 104               		.loc 1 84 0
 105 0010 C0E0      		ldi r28,0
 106               	.LVL4:
 107               	.L5:
  85:../../tmk_core_custom/common/softpwm_led.c ****         softpwm_led_off(i);
 108               		.loc 1 85 0 discriminator 2
 109 0012 8C2F      		mov r24,r28
 110 0014 0E94 0000 		call softpwm_led_off
 111               	.LVL5:
  84:../../tmk_core_custom/common/softpwm_led.c ****     for (uint8_t i = 0; i < LED_COUNT; i++) {
 112               		.loc 1 84 0 discriminator 2
 113 0018 CF5F      		subi r28,lo8(-(1))
 114               	.LVL6:
 115 001a C530      		cpi r28,lo8(5)
 116 001c 01F4      		brne .L5
 117               	.LBE2:
  86:../../tmk_core_custom/common/softpwm_led.c ****     }
  87:../../tmk_core_custom/common/softpwm_led.c **** #ifdef LEDMAP_ENABLE
  88:../../tmk_core_custom/common/softpwm_led.c ****     softpwm_led_state_change(softpwm_led_state);
 118               		.loc 1 88 0
 119 001e 8091 0000 		lds r24,softpwm_led_state
 120               	/* epilogue start */
  89:../../tmk_core_custom/common/softpwm_led.c **** #endif
  90:../../tmk_core_custom/common/softpwm_led.c **** }
 121               		.loc 1 90 0
 122 0022 CF91      		pop r28
 123               	.LVL7:
  88:../../tmk_core_custom/common/softpwm_led.c ****     softpwm_led_state_change(softpwm_led_state);
 124               		.loc 1 88 0
 125 0024 0C94 0000 		jmp softpwm_led_state_change
 126               	.LVL8:
 127               		.cfi_endproc
 128               	.LFE3:
 130               		.section	.text.softpwm_led_toggle,"ax",@progbits
 131               	.global	softpwm_led_toggle
 133               	softpwm_led_toggle:
 134               	.LFB4:
  91:../../tmk_core_custom/common/softpwm_led.c **** 
  92:../../tmk_core_custom/common/softpwm_led.c **** void softpwm_led_toggle(void)
  93:../../tmk_core_custom/common/softpwm_led.c **** {
 135               		.loc 1 93 0
 136               		.cfi_startproc
 137               	/* prologue: function */
 138               	/* frame size = 0 */
 139               	/* stack size = 0 */
 140               	.L__stack_usage = 0
  94:../../tmk_core_custom/common/softpwm_led.c ****     if (softpwm_led_state) {
 141               		.loc 1 94 0
 142 0000 8091 0000 		lds r24,softpwm_led_state
 143 0004 8111      		cpse r24,__zero_reg__
  95:../../tmk_core_custom/common/softpwm_led.c ****         softpwm_led_disable();
 144               		.loc 1 95 0
 145 0006 0C94 0000 		jmp softpwm_led_disable
 146               	.LVL9:
 147               	.L8:
  96:../../tmk_core_custom/common/softpwm_led.c ****     }
  97:../../tmk_core_custom/common/softpwm_led.c ****     else {
  98:../../tmk_core_custom/common/softpwm_led.c ****         softpwm_led_enable();
 148               		.loc 1 98 0
 149 000a 0C94 0000 		jmp softpwm_led_enable
 150               	.LVL10:
 151               		.cfi_endproc
 152               	.LFE4:
 154               		.section	.text.softpwm_led_set,"ax",@progbits
 155               	.global	softpwm_led_set
 157               	softpwm_led_set:
 158               	.LFB5:
  99:../../tmk_core_custom/common/softpwm_led.c ****     }
 100:../../tmk_core_custom/common/softpwm_led.c **** }
 101:../../tmk_core_custom/common/softpwm_led.c **** 
 102:../../tmk_core_custom/common/softpwm_led.c **** void softpwm_led_set(uint8_t index, uint8_t val)
 103:../../tmk_core_custom/common/softpwm_led.c **** {
 159               		.loc 1 103 0
 160               		.cfi_startproc
 161               	.LVL11:
 162               	/* prologue: function */
 163               	/* frame size = 0 */
 164               	/* stack size = 0 */
 165               	.L__stack_usage = 0
 104:../../tmk_core_custom/common/softpwm_led.c ****     softpwm_led_ocr_buff[index] = val;
 166               		.loc 1 104 0
 167 0000 E82F      		mov r30,r24
 168 0002 F0E0      		ldi r31,0
 169 0004 E050      		subi r30,lo8(-(softpwm_led_ocr_buff))
 170 0006 F040      		sbci r31,hi8(-(softpwm_led_ocr_buff))
 171 0008 6083      		st Z,r22
 172 000a 0895      		ret
 173               		.cfi_endproc
 174               	.LFE5:
 176               		.section	.text.softpwm_led_set_all,"ax",@progbits
 177               	.global	softpwm_led_set_all
 179               	softpwm_led_set_all:
 180               	.LFB6:
 105:../../tmk_core_custom/common/softpwm_led.c **** }
 106:../../tmk_core_custom/common/softpwm_led.c **** 
 107:../../tmk_core_custom/common/softpwm_led.c **** void softpwm_led_set_all(uint8_t val)
 108:../../tmk_core_custom/common/softpwm_led.c **** {
 181               		.loc 1 108 0
 182               		.cfi_startproc
 183               	.LVL12:
 184               	/* prologue: function */
 185               	/* frame size = 0 */
 186               	/* stack size = 0 */
 187               	.L__stack_usage = 0
 188               	.LBB3:
 109:../../tmk_core_custom/common/softpwm_led.c ****     for (uint8_t i = 0; i < LED_COUNT; i++) {
 110:../../tmk_core_custom/common/softpwm_led.c ****         softpwm_led_ocr_buff[i] = val;
 189               		.loc 1 110 0
 190 0000 8093 0000 		sts softpwm_led_ocr_buff,r24
 191               	.LVL13:
 192 0004 8093 0000 		sts softpwm_led_ocr_buff+1,r24
 193               	.LVL14:
 194 0008 8093 0000 		sts softpwm_led_ocr_buff+2,r24
 195               	.LVL15:
 196 000c 8093 0000 		sts softpwm_led_ocr_buff+3,r24
 197               	.LVL16:
 198 0010 8093 0000 		sts softpwm_led_ocr_buff+4,r24
 199               	.LVL17:
 200 0014 0895      		ret
 201               	.LBE3:
 202               		.cfi_endproc
 203               	.LFE6:
 205               		.section	.text.softpwm_led_increase,"ax",@progbits
 206               	.global	softpwm_led_increase
 208               	softpwm_led_increase:
 209               	.LFB7:
 111:../../tmk_core_custom/common/softpwm_led.c ****     }
 112:../../tmk_core_custom/common/softpwm_led.c **** }
 113:../../tmk_core_custom/common/softpwm_led.c **** 
 114:../../tmk_core_custom/common/softpwm_led.c **** void softpwm_led_increase(uint8_t index, uint8_t offset)
 115:../../tmk_core_custom/common/softpwm_led.c **** {
 210               		.loc 1 115 0
 211               		.cfi_startproc
 212               	.LVL18:
 213               	/* prologue: function */
 214               	/* frame size = 0 */
 215               	/* stack size = 0 */
 216               	.L__stack_usage = 0
 116:../../tmk_core_custom/common/softpwm_led.c ****     if (softpwm_led_ocr_buff[index] > 0xFF - offset) {
 217               		.loc 1 116 0
 218 0000 E82F      		mov r30,r24
 219 0002 F0E0      		ldi r31,0
 220 0004 E050      		subi r30,lo8(-(softpwm_led_ocr_buff))
 221 0006 F040      		sbci r31,hi8(-(softpwm_led_ocr_buff))
 222 0008 4081      		ld r20,Z
 223 000a 242F      		mov r18,r20
 224 000c 30E0      		ldi r19,0
 225 000e 8FEF      		ldi r24,lo8(-1)
 226 0010 90E0      		ldi r25,0
 227               	.LVL19:
 228 0012 861B      		sub r24,r22
 229 0014 9109      		sbc r25,__zero_reg__
 230 0016 8217      		cp r24,r18
 231 0018 9307      		cpc r25,r19
 232 001a 04F4      		brge .L12
 117:../../tmk_core_custom/common/softpwm_led.c ****         softpwm_led_ocr_buff[index] = 0xFF;
 233               		.loc 1 117 0
 234 001c 8FEF      		ldi r24,lo8(-1)
 235 001e 8083      		st Z,r24
 236 0020 0895      		ret
 237               	.L12:
 118:../../tmk_core_custom/common/softpwm_led.c ****     }
 119:../../tmk_core_custom/common/softpwm_led.c ****     else {
 120:../../tmk_core_custom/common/softpwm_led.c ****         softpwm_led_ocr_buff[index] += offset;
 238               		.loc 1 120 0
 239 0022 640F      		add r22,r20
 240               	.LVL20:
 241 0024 6083      		st Z,r22
 242 0026 0895      		ret
 243               		.cfi_endproc
 244               	.LFE7:
 246               		.section	.text.softpwm_led_increase_all,"ax",@progbits
 247               	.global	softpwm_led_increase_all
 249               	softpwm_led_increase_all:
 250               	.LFB8:
 121:../../tmk_core_custom/common/softpwm_led.c ****     }
 122:../../tmk_core_custom/common/softpwm_led.c **** }
 123:../../tmk_core_custom/common/softpwm_led.c **** 
 124:../../tmk_core_custom/common/softpwm_led.c **** void softpwm_led_increase_all(uint8_t offset)
 125:../../tmk_core_custom/common/softpwm_led.c **** {
 251               		.loc 1 125 0
 252               		.cfi_startproc
 253               	.LVL21:
 254 0000 CF93      		push r28
 255               	.LCFI1:
 256               		.cfi_def_cfa_offset 3
 257               		.cfi_offset 28, -2
 258 0002 DF93      		push r29
 259               	.LCFI2:
 260               		.cfi_def_cfa_offset 4
 261               		.cfi_offset 29, -3
 262               	/* prologue: function */
 263               	/* frame size = 0 */
 264               	/* stack size = 2 */
 265               	.L__stack_usage = 2
 266 0004 D82F      		mov r29,r24
 267               	.LVL22:
 268               	.LBB4:
 126:../../tmk_core_custom/common/softpwm_led.c ****     for (uint8_t i = 0; i < LED_COUNT; i++) {
 269               		.loc 1 126 0
 270 0006 C0E0      		ldi r28,0
 271               	.LVL23:
 272               	.L16:
 127:../../tmk_core_custom/common/softpwm_led.c ****         softpwm_led_increase(i, offset);
 273               		.loc 1 127 0 discriminator 2
 274 0008 6D2F      		mov r22,r29
 275 000a 8C2F      		mov r24,r28
 276 000c 0E94 0000 		call softpwm_led_increase
 277               	.LVL24:
 126:../../tmk_core_custom/common/softpwm_led.c ****     for (uint8_t i = 0; i < LED_COUNT; i++) {
 278               		.loc 1 126 0 discriminator 2
 279 0010 CF5F      		subi r28,lo8(-(1))
 280               	.LVL25:
 281 0012 C530      		cpi r28,lo8(5)
 282 0014 01F4      		brne .L16
 283               	/* epilogue start */
 284               	.LBE4:
 128:../../tmk_core_custom/common/softpwm_led.c ****     }
 129:../../tmk_core_custom/common/softpwm_led.c **** }
 285               		.loc 1 129 0
 286 0016 DF91      		pop r29
 287               	.LVL26:
 288 0018 CF91      		pop r28
 289               	.LVL27:
 290 001a 0895      		ret
 291               		.cfi_endproc
 292               	.LFE8:
 294               		.section	.text.softpwm_led_decrease,"ax",@progbits
 295               	.global	softpwm_led_decrease
 297               	softpwm_led_decrease:
 298               	.LFB9:
 130:../../tmk_core_custom/common/softpwm_led.c **** 
 131:../../tmk_core_custom/common/softpwm_led.c **** void softpwm_led_decrease(uint8_t index, uint8_t offset)
 132:../../tmk_core_custom/common/softpwm_led.c **** {
 299               		.loc 1 132 0
 300               		.cfi_startproc
 301               	.LVL28:
 302               	/* prologue: function */
 303               	/* frame size = 0 */
 304               	/* stack size = 0 */
 305               	.L__stack_usage = 0
 133:../../tmk_core_custom/common/softpwm_led.c ****     if (softpwm_led_ocr_buff[index] < offset) {
 306               		.loc 1 133 0
 307 0000 E82F      		mov r30,r24
 308 0002 F0E0      		ldi r31,0
 309 0004 E050      		subi r30,lo8(-(softpwm_led_ocr_buff))
 310 0006 F040      		sbci r31,hi8(-(softpwm_led_ocr_buff))
 311 0008 8081      		ld r24,Z
 312               	.LVL29:
 313 000a 8617      		cp r24,r22
 314 000c 00F4      		brsh .L18
 134:../../tmk_core_custom/common/softpwm_led.c ****         softpwm_led_ocr_buff[index] = 0;
 315               		.loc 1 134 0
 316 000e 1082      		st Z,__zero_reg__
 317 0010 0895      		ret
 318               	.L18:
 135:../../tmk_core_custom/common/softpwm_led.c ****     }
 136:../../tmk_core_custom/common/softpwm_led.c ****     else {
 137:../../tmk_core_custom/common/softpwm_led.c ****         softpwm_led_ocr_buff[index] -= offset;
 319               		.loc 1 137 0
 320 0012 861B      		sub r24,r22
 321 0014 8083      		st Z,r24
 322 0016 0895      		ret
 323               		.cfi_endproc
 324               	.LFE9:
 326               		.section	.text.softpwm_led_decrease_all,"ax",@progbits
 327               	.global	softpwm_led_decrease_all
 329               	softpwm_led_decrease_all:
 330               	.LFB10:
 138:../../tmk_core_custom/common/softpwm_led.c ****     }
 139:../../tmk_core_custom/common/softpwm_led.c **** }
 140:../../tmk_core_custom/common/softpwm_led.c **** 
 141:../../tmk_core_custom/common/softpwm_led.c **** void softpwm_led_decrease_all(uint8_t offset)
 142:../../tmk_core_custom/common/softpwm_led.c **** {
 331               		.loc 1 142 0
 332               		.cfi_startproc
 333               	.LVL30:
 334 0000 CF93      		push r28
 335               	.LCFI3:
 336               		.cfi_def_cfa_offset 3
 337               		.cfi_offset 28, -2
 338 0002 DF93      		push r29
 339               	.LCFI4:
 340               		.cfi_def_cfa_offset 4
 341               		.cfi_offset 29, -3
 342               	/* prologue: function */
 343               	/* frame size = 0 */
 344               	/* stack size = 2 */
 345               	.L__stack_usage = 2
 346 0004 D82F      		mov r29,r24
 347               	.LVL31:
 348               	.LBB5:
 143:../../tmk_core_custom/common/softpwm_led.c ****     for (uint8_t i = 0; i < LED_COUNT; i++) {
 349               		.loc 1 143 0
 350 0006 C0E0      		ldi r28,0
 351               	.LVL32:
 352               	.L22:
 144:../../tmk_core_custom/common/softpwm_led.c ****         softpwm_led_decrease(i, offset);
 353               		.loc 1 144 0 discriminator 2
 354 0008 6D2F      		mov r22,r29
 355 000a 8C2F      		mov r24,r28
 356 000c 0E94 0000 		call softpwm_led_decrease
 357               	.LVL33:
 143:../../tmk_core_custom/common/softpwm_led.c ****     for (uint8_t i = 0; i < LED_COUNT; i++) {
 358               		.loc 1 143 0 discriminator 2
 359 0010 CF5F      		subi r28,lo8(-(1))
 360               	.LVL34:
 361 0012 C530      		cpi r28,lo8(5)
 362 0014 01F4      		brne .L22
 363               	/* epilogue start */
 364               	.LBE5:
 145:../../tmk_core_custom/common/softpwm_led.c ****     }
 146:../../tmk_core_custom/common/softpwm_led.c **** }
 365               		.loc 1 146 0
 366 0016 DF91      		pop r29
 367               	.LVL35:
 368 0018 CF91      		pop r28
 369               	.LVL36:
 370 001a 0895      		ret
 371               		.cfi_endproc
 372               	.LFE10:
 374               		.section	.text.softpwm_led_get_state,"ax",@progbits
 375               	.global	softpwm_led_get_state
 377               	softpwm_led_get_state:
 378               	.LFB11:
 147:../../tmk_core_custom/common/softpwm_led.c **** 
 148:../../tmk_core_custom/common/softpwm_led.c **** inline uint8_t softpwm_led_get_state(void)
 149:../../tmk_core_custom/common/softpwm_led.c **** {
 379               		.loc 1 149 0
 380               		.cfi_startproc
 381               	/* prologue: function */
 382               	/* frame size = 0 */
 383               	/* stack size = 0 */
 384               	.L__stack_usage = 0
 150:../../tmk_core_custom/common/softpwm_led.c ****     return softpwm_led_state;
 151:../../tmk_core_custom/common/softpwm_led.c **** }
 385               		.loc 1 151 0
 386 0000 8091 0000 		lds r24,softpwm_led_state
 387 0004 0895      		ret
 388               		.cfi_endproc
 389               	.LFE11:
 391               		.section	.text.fading_led_enable,"ax",@progbits
 392               	.global	fading_led_enable
 394               	fading_led_enable:
 395               	.LFB12:
 152:../../tmk_core_custom/common/softpwm_led.c **** 
 153:../../tmk_core_custom/common/softpwm_led.c **** #ifdef FADING_LED_ENABLE
 154:../../tmk_core_custom/common/softpwm_led.c **** 
 155:../../tmk_core_custom/common/softpwm_led.c **** static led_pack_t fading_led_state = 0;
 156:../../tmk_core_custom/common/softpwm_led.c **** static led_pack_t fading_led_direction = 0;
 157:../../tmk_core_custom/common/softpwm_led.c **** static uint8_t fading_led_duration = 0;
 158:../../tmk_core_custom/common/softpwm_led.c **** static uint8_t fading_led_delay[LED_COUNT] = {0};
 159:../../tmk_core_custom/common/softpwm_led.c **** 
 160:../../tmk_core_custom/common/softpwm_led.c **** void fading_led_enable(uint8_t index)
 161:../../tmk_core_custom/common/softpwm_led.c **** {
 396               		.loc 1 161 0
 397               		.cfi_startproc
 398               	.LVL37:
 399               	/* prologue: function */
 400               	/* frame size = 0 */
 401               	/* stack size = 0 */
 402               	.L__stack_usage = 0
 162:../../tmk_core_custom/common/softpwm_led.c ****     LED_BIT_SET(fading_led_state, index);
 403               		.loc 1 162 0
 404 0000 21E0      		ldi r18,lo8(1)
 405 0002 30E0      		ldi r19,0
 406 0004 00C0      		rjmp 2f
 407               		1:
 408 0006 220F      		lsl r18
 409               		2:
 410 0008 8A95      		dec r24
 411 000a 02F4      		brpl 1b
 412 000c 8091 0000 		lds r24,fading_led_state
 413               	.LVL38:
 414 0010 822B      		or r24,r18
 415 0012 8093 0000 		sts fading_led_state,r24
 416 0016 0895      		ret
 417               		.cfi_endproc
 418               	.LFE12:
 420               		.section	.text.fading_led_enable_all,"ax",@progbits
 421               	.global	fading_led_enable_all
 423               	fading_led_enable_all:
 424               	.LFB13:
 163:../../tmk_core_custom/common/softpwm_led.c **** }
 164:../../tmk_core_custom/common/softpwm_led.c **** 
 165:../../tmk_core_custom/common/softpwm_led.c **** void fading_led_enable_all(void)
 166:../../tmk_core_custom/common/softpwm_led.c **** {
 425               		.loc 1 166 0
 426               		.cfi_startproc
 427               	/* prologue: function */
 428               	/* frame size = 0 */
 429               	/* stack size = 0 */
 430               	.L__stack_usage = 0
 431               	.LVL39:
 432 0000 8091 0000 		lds r24,fading_led_state
 433               	.LVL40:
 434               	.LBB6:
 167:../../tmk_core_custom/common/softpwm_led.c ****     for (uint8_t i = 0; i < LED_COUNT; i++) {
 168:../../tmk_core_custom/common/softpwm_led.c ****         LED_BIT_SET(fading_led_state, i);
 435               		.loc 1 168 0
 436 0004 8F61      		ori r24,lo8(31)
 437 0006 8093 0000 		sts fading_led_state,r24
 438 000a 0895      		ret
 439               	.LBE6:
 440               		.cfi_endproc
 441               	.LFE13:
 443               		.section	.text.fading_led_disable,"ax",@progbits
 444               	.global	fading_led_disable
 446               	fading_led_disable:
 447               	.LFB14:
 169:../../tmk_core_custom/common/softpwm_led.c ****     }
 170:../../tmk_core_custom/common/softpwm_led.c **** }
 171:../../tmk_core_custom/common/softpwm_led.c **** 
 172:../../tmk_core_custom/common/softpwm_led.c **** void fading_led_disable(uint8_t index)
 173:../../tmk_core_custom/common/softpwm_led.c **** {
 448               		.loc 1 173 0
 449               		.cfi_startproc
 450               	.LVL41:
 451               	/* prologue: function */
 452               	/* frame size = 0 */
 453               	/* stack size = 0 */
 454               	.L__stack_usage = 0
 174:../../tmk_core_custom/common/softpwm_led.c ****     LED_BIT_CLEAR(fading_led_state, index);
 455               		.loc 1 174 0
 456 0000 21E0      		ldi r18,lo8(1)
 457 0002 30E0      		ldi r19,0
 458 0004 00C0      		rjmp 2f
 459               		1:
 460 0006 220F      		lsl r18
 461               		2:
 462 0008 8A95      		dec r24
 463 000a 02F4      		brpl 1b
 464 000c 2095      		com r18
 465 000e 8091 0000 		lds r24,fading_led_state
 466               	.LVL42:
 467 0012 8223      		and r24,r18
 468 0014 8093 0000 		sts fading_led_state,r24
 469 0018 0895      		ret
 470               		.cfi_endproc
 471               	.LFE14:
 473               		.section	.text.fading_led_disable_all,"ax",@progbits
 474               	.global	fading_led_disable_all
 476               	fading_led_disable_all:
 477               	.LFB15:
 175:../../tmk_core_custom/common/softpwm_led.c **** }
 176:../../tmk_core_custom/common/softpwm_led.c **** 
 177:../../tmk_core_custom/common/softpwm_led.c **** void fading_led_disable_all(void)
 178:../../tmk_core_custom/common/softpwm_led.c **** {
 478               		.loc 1 178 0
 479               		.cfi_startproc
 480               	/* prologue: function */
 481               	/* frame size = 0 */
 482               	/* stack size = 0 */
 483               	.L__stack_usage = 0
 179:../../tmk_core_custom/common/softpwm_led.c ****     fading_led_state = 0;
 484               		.loc 1 179 0
 485 0000 1092 0000 		sts fading_led_state,__zero_reg__
 486 0004 0895      		ret
 487               		.cfi_endproc
 488               	.LFE15:
 490               		.section	.text.fading_led_toggle,"ax",@progbits
 491               	.global	fading_led_toggle
 493               	fading_led_toggle:
 494               	.LFB16:
 180:../../tmk_core_custom/common/softpwm_led.c **** }
 181:../../tmk_core_custom/common/softpwm_led.c **** 
 182:../../tmk_core_custom/common/softpwm_led.c **** void fading_led_toggle(uint8_t index)
 183:../../tmk_core_custom/common/softpwm_led.c **** {
 495               		.loc 1 183 0
 496               		.cfi_startproc
 497               	.LVL43:
 498               	/* prologue: function */
 499               	/* frame size = 0 */
 500               	/* stack size = 0 */
 501               	.L__stack_usage = 0
 184:../../tmk_core_custom/common/softpwm_led.c ****     LED_BIT_XOR(fading_led_state, index);
 502               		.loc 1 184 0
 503 0000 21E0      		ldi r18,lo8(1)
 504 0002 30E0      		ldi r19,0
 505 0004 00C0      		rjmp 2f
 506               		1:
 507 0006 220F      		lsl r18
 508               		2:
 509 0008 8A95      		dec r24
 510 000a 02F4      		brpl 1b
 511 000c 8091 0000 		lds r24,fading_led_state
 512               	.LVL44:
 513 0010 8227      		eor r24,r18
 514 0012 8093 0000 		sts fading_led_state,r24
 515 0016 0895      		ret
 516               		.cfi_endproc
 517               	.LFE16:
 519               		.section	.text.fading_led_toggle_all,"ax",@progbits
 520               	.global	fading_led_toggle_all
 522               	fading_led_toggle_all:
 523               	.LFB17:
 185:../../tmk_core_custom/common/softpwm_led.c **** }
 186:../../tmk_core_custom/common/softpwm_led.c **** 
 187:../../tmk_core_custom/common/softpwm_led.c **** void fading_led_toggle_all(void)
 188:../../tmk_core_custom/common/softpwm_led.c **** {
 524               		.loc 1 188 0
 525               		.cfi_startproc
 526               	/* prologue: function */
 527               	/* frame size = 0 */
 528               	/* stack size = 0 */
 529               	.L__stack_usage = 0
 530               	.LVL45:
 531 0000 8091 0000 		lds r24,fading_led_state
 532               	.LVL46:
 533               	.LBB7:
 189:../../tmk_core_custom/common/softpwm_led.c ****     for (uint8_t i = 0; i < LED_COUNT; i++) {
 190:../../tmk_core_custom/common/softpwm_led.c ****         LED_BIT_XOR(fading_led_state, i);
 534               		.loc 1 190 0
 535 0004 9FE1      		ldi r25,lo8(31)
 536 0006 8927      		eor r24,r25
 537 0008 8093 0000 		sts fading_led_state,r24
 538 000c 0895      		ret
 539               	.LBE7:
 540               		.cfi_endproc
 541               	.LFE17:
 543               		.section	.text.fading_led_set_direction,"ax",@progbits
 544               	.global	fading_led_set_direction
 546               	fading_led_set_direction:
 547               	.LFB18:
 191:../../tmk_core_custom/common/softpwm_led.c ****     }
 192:../../tmk_core_custom/common/softpwm_led.c **** }
 193:../../tmk_core_custom/common/softpwm_led.c **** 
 194:../../tmk_core_custom/common/softpwm_led.c **** void fading_led_set_direction(uint8_t index, uint8_t dir)
 195:../../tmk_core_custom/common/softpwm_led.c **** {
 548               		.loc 1 195 0
 549               		.cfi_startproc
 550               	.LVL47:
 551               	/* prologue: function */
 552               	/* frame size = 0 */
 553               	/* stack size = 0 */
 554               	.L__stack_usage = 0
 555 0000 9091 0000 		lds r25,fading_led_direction
 196:../../tmk_core_custom/common/softpwm_led.c ****     if (dir) {
 197:../../tmk_core_custom/common/softpwm_led.c ****         LED_BIT_SET(fading_led_direction, index);
 556               		.loc 1 197 0
 557 0004 21E0      		ldi r18,lo8(1)
 558 0006 30E0      		ldi r19,0
 559 0008 082E      		mov r0,r24
 560 000a 00C0      		rjmp 2f
 561               		1:
 562 000c 220F      		lsl r18
 563               		2:
 564 000e 0A94      		dec r0
 565 0010 02F4      		brpl 1b
 196:../../tmk_core_custom/common/softpwm_led.c ****     if (dir) {
 566               		.loc 1 196 0
 567 0012 6623      		tst r22
 568 0014 01F0      		breq .L31
 569               		.loc 1 197 0
 570 0016 292B      		or r18,r25
 571 0018 00C0      		rjmp .L33
 572               	.L31:
 198:../../tmk_core_custom/common/softpwm_led.c ****     }
 199:../../tmk_core_custom/common/softpwm_led.c ****     else {
 200:../../tmk_core_custom/common/softpwm_led.c ****         LED_BIT_CLEAR(fading_led_direction, index);
 573               		.loc 1 200 0
 574 001a 2095      		com r18
 575 001c 2923      		and r18,r25
 576               	.L33:
 577 001e 2093 0000 		sts fading_led_direction,r18
 578 0022 0895      		ret
 579               		.cfi_endproc
 580               	.LFE18:
 582               		.section	.text.fading_led_set_direction_all,"ax",@progbits
 583               	.global	fading_led_set_direction_all
 585               	fading_led_set_direction_all:
 586               	.LFB19:
 201:../../tmk_core_custom/common/softpwm_led.c ****     }
 202:../../tmk_core_custom/common/softpwm_led.c **** }
 203:../../tmk_core_custom/common/softpwm_led.c **** 
 204:../../tmk_core_custom/common/softpwm_led.c **** void fading_led_set_direction_all(uint8_t dir)
 205:../../tmk_core_custom/common/softpwm_led.c **** {
 587               		.loc 1 205 0
 588               		.cfi_startproc
 589               	.LVL48:
 590 0000 CF93      		push r28
 591               	.LCFI5:
 592               		.cfi_def_cfa_offset 3
 593               		.cfi_offset 28, -2
 594 0002 DF93      		push r29
 595               	.LCFI6:
 596               		.cfi_def_cfa_offset 4
 597               		.cfi_offset 29, -3
 598               	/* prologue: function */
 599               	/* frame size = 0 */
 600               	/* stack size = 2 */
 601               	.L__stack_usage = 2
 602 0004 D82F      		mov r29,r24
 603               	.LVL49:
 604               	.LBB8:
 206:../../tmk_core_custom/common/softpwm_led.c ****     for (uint8_t i = 0; i < LED_COUNT; i++) {
 605               		.loc 1 206 0
 606 0006 C0E0      		ldi r28,0
 607               	.LVL50:
 608               	.L36:
 207:../../tmk_core_custom/common/softpwm_led.c ****         fading_led_set_direction(i, dir);
 609               		.loc 1 207 0 discriminator 2
 610 0008 6D2F      		mov r22,r29
 611 000a 8C2F      		mov r24,r28
 612 000c 0E94 0000 		call fading_led_set_direction
 613               	.LVL51:
 206:../../tmk_core_custom/common/softpwm_led.c ****     for (uint8_t i = 0; i < LED_COUNT; i++) {
 614               		.loc 1 206 0 discriminator 2
 615 0010 CF5F      		subi r28,lo8(-(1))
 616               	.LVL52:
 617 0012 C530      		cpi r28,lo8(5)
 618 0014 01F4      		brne .L36
 619               	/* epilogue start */
 620               	.LBE8:
 208:../../tmk_core_custom/common/softpwm_led.c ****     }
 209:../../tmk_core_custom/common/softpwm_led.c **** }
 621               		.loc 1 209 0
 622 0016 DF91      		pop r29
 623               	.LVL53:
 624 0018 CF91      		pop r28
 625               	.LVL54:
 626 001a 0895      		ret
 627               		.cfi_endproc
 628               	.LFE19:
 630               		.section	.text.fading_led_set_duration,"ax",@progbits
 631               	.global	fading_led_set_duration
 633               	fading_led_set_duration:
 634               	.LFB20:
 210:../../tmk_core_custom/common/softpwm_led.c **** 
 211:../../tmk_core_custom/common/softpwm_led.c **** void fading_led_set_duration(uint8_t dur)
 212:../../tmk_core_custom/common/softpwm_led.c **** {
 635               		.loc 1 212 0
 636               		.cfi_startproc
 637               	.LVL55:
 638               	/* prologue: function */
 639               	/* frame size = 0 */
 640               	/* stack size = 0 */
 641               	.L__stack_usage = 0
 213:../../tmk_core_custom/common/softpwm_led.c ****     fading_led_duration = dur;
 642               		.loc 1 213 0
 643 0000 8093 0000 		sts fading_led_duration,r24
 644 0004 0895      		ret
 645               		.cfi_endproc
 646               	.LFE20:
 648               		.section	.text.fading_led_set_delay,"ax",@progbits
 649               	.global	fading_led_set_delay
 651               	fading_led_set_delay:
 652               	.LFB21:
 214:../../tmk_core_custom/common/softpwm_led.c **** }
 215:../../tmk_core_custom/common/softpwm_led.c **** 
 216:../../tmk_core_custom/common/softpwm_led.c **** void fading_led_set_delay(uint8_t index, uint8_t delay)
 217:../../tmk_core_custom/common/softpwm_led.c **** {
 653               		.loc 1 217 0
 654               		.cfi_startproc
 655               	.LVL56:
 656               	/* prologue: function */
 657               	/* frame size = 0 */
 658               	/* stack size = 0 */
 659               	.L__stack_usage = 0
 218:../../tmk_core_custom/common/softpwm_led.c ****     fading_led_delay[index] = delay;
 660               		.loc 1 218 0
 661 0000 E82F      		mov r30,r24
 662 0002 F0E0      		ldi r31,0
 663 0004 E050      		subi r30,lo8(-(fading_led_delay))
 664 0006 F040      		sbci r31,hi8(-(fading_led_delay))
 665 0008 6083      		st Z,r22
 666 000a 0895      		ret
 667               		.cfi_endproc
 668               	.LFE21:
 670               		.section	.text.fading_led_set_delay_all,"ax",@progbits
 671               	.global	fading_led_set_delay_all
 673               	fading_led_set_delay_all:
 674               	.LFB22:
 219:../../tmk_core_custom/common/softpwm_led.c **** }
 220:../../tmk_core_custom/common/softpwm_led.c **** 
 221:../../tmk_core_custom/common/softpwm_led.c **** void fading_led_set_delay_all(uint8_t delay)
 222:../../tmk_core_custom/common/softpwm_led.c **** {
 675               		.loc 1 222 0
 676               		.cfi_startproc
 677               	.LVL57:
 678               	/* prologue: function */
 679               	/* frame size = 0 */
 680               	/* stack size = 0 */
 681               	.L__stack_usage = 0
 682               	.LBB9:
 223:../../tmk_core_custom/common/softpwm_led.c ****     for (uint8_t i = 0; i < LED_COUNT; i++) {
 224:../../tmk_core_custom/common/softpwm_led.c ****         fading_led_delay[i] = delay;
 683               		.loc 1 224 0
 684 0000 8093 0000 		sts fading_led_delay,r24
 685               	.LVL58:
 686 0004 8093 0000 		sts fading_led_delay+1,r24
 687               	.LVL59:
 688 0008 8093 0000 		sts fading_led_delay+2,r24
 689               	.LVL60:
 690 000c 8093 0000 		sts fading_led_delay+3,r24
 691               	.LVL61:
 692 0010 8093 0000 		sts fading_led_delay+4,r24
 693               	.LVL62:
 694 0014 0895      		ret
 695               	.LBE9:
 696               		.cfi_endproc
 697               	.LFE22:
 699               		.section	.text.breathing_led_enable,"ax",@progbits
 700               	.global	breathing_led_enable
 702               	breathing_led_enable:
 703               	.LFB23:
 225:../../tmk_core_custom/common/softpwm_led.c ****     }
 226:../../tmk_core_custom/common/softpwm_led.c **** }
 227:../../tmk_core_custom/common/softpwm_led.c **** 
 228:../../tmk_core_custom/common/softpwm_led.c **** #endif
 229:../../tmk_core_custom/common/softpwm_led.c **** 
 230:../../tmk_core_custom/common/softpwm_led.c **** #ifdef BREATHING_LED_ENABLE
 231:../../tmk_core_custom/common/softpwm_led.c **** 
 232:../../tmk_core_custom/common/softpwm_led.c **** /* Breathing LED brighness(PWM On period) table
 233:../../tmk_core_custom/common/softpwm_led.c ****  *
 234:../../tmk_core_custom/common/softpwm_led.c ****  * http://www.wolframalpha.com/input/?i=Table%5Bfloor%28%28exp%28sin%28x%2F256*2*pi%2B3%2F2*pi%29%2
 235:../../tmk_core_custom/common/softpwm_led.c ****  * Table[floor((exp(sin(x/256*2*pi+3/2*pi))-1/e)*(256/(e-1/e))), {x,0,255,1}]
 236:../../tmk_core_custom/common/softpwm_led.c ****  * (0..255).each {|x| print ((exp(sin(x/256.0*2*PI+3.0/2*PI))-1/E)*(256/(E-1/E))).to_i, ', ' }
 237:../../tmk_core_custom/common/softpwm_led.c ****  */
 238:../../tmk_core_custom/common/softpwm_led.c **** static const uint8_t breathing_table[128] PROGMEM = {
 239:../../tmk_core_custom/common/softpwm_led.c **** 0, 0, 0, 0, 0, 0, 0, 0, 0, 0, 1, 1, 1, 2, 2, 2, 3, 3, 4, 4, 5, 5, 6, 6, 7, 8, 8, 9, 10, 11, 11, 12,
 240:../../tmk_core_custom/common/softpwm_led.c **** };
 241:../../tmk_core_custom/common/softpwm_led.c **** 
 242:../../tmk_core_custom/common/softpwm_led.c **** static led_pack_t breathing_led_state = 0;
 243:../../tmk_core_custom/common/softpwm_led.c **** static led_pack_t breathing_led_once = 0;
 244:../../tmk_core_custom/common/softpwm_led.c **** static uint8_t breathing_led_duration = 0;
 245:../../tmk_core_custom/common/softpwm_led.c **** static uint8_t breathing_led_index[LED_COUNT] = {0};
 246:../../tmk_core_custom/common/softpwm_led.c **** static led_pack_t breathing_led_direction = 0;
 247:../../tmk_core_custom/common/softpwm_led.c **** 
 248:../../tmk_core_custom/common/softpwm_led.c **** void breathing_led_enable(uint8_t index)
 249:../../tmk_core_custom/common/softpwm_led.c **** {
 704               		.loc 1 249 0
 705               		.cfi_startproc
 706               	.LVL63:
 707               	/* prologue: function */
 708               	/* frame size = 0 */
 709               	/* stack size = 0 */
 710               	.L__stack_usage = 0
 250:../../tmk_core_custom/common/softpwm_led.c ****     LED_BIT_SET(breathing_led_state, index);
 711               		.loc 1 250 0
 712 0000 21E0      		ldi r18,lo8(1)
 713 0002 30E0      		ldi r19,0
 714 0004 00C0      		rjmp 2f
 715               		1:
 716 0006 220F      		lsl r18
 717               		2:
 718 0008 8A95      		dec r24
 719 000a 02F4      		brpl 1b
 720 000c 8091 0000 		lds r24,breathing_led_state
 721               	.LVL64:
 722 0010 822B      		or r24,r18
 723 0012 8093 0000 		sts breathing_led_state,r24
 724 0016 0895      		ret
 725               		.cfi_endproc
 726               	.LFE23:
 728               		.section	.text.breathing_led_enable_once,"ax",@progbits
 729               	.global	breathing_led_enable_once
 731               	breathing_led_enable_once:
 732               	.LFB24:
 251:../../tmk_core_custom/common/softpwm_led.c **** }
 252:../../tmk_core_custom/common/softpwm_led.c **** 
 253:../../tmk_core_custom/common/softpwm_led.c **** void breathing_led_enable_once(uint8_t index)
 254:../../tmk_core_custom/common/softpwm_led.c **** {
 733               		.loc 1 254 0
 734               		.cfi_startproc
 735               	.LVL65:
 736               	/* prologue: function */
 737               	/* frame size = 0 */
 738               	/* stack size = 0 */
 739               	.L__stack_usage = 0
 255:../../tmk_core_custom/common/softpwm_led.c ****     LED_BIT_SET(breathing_led_state, index);
 740               		.loc 1 255 0
 741 0000 21E0      		ldi r18,lo8(1)
 742 0002 30E0      		ldi r19,0
 743 0004 00C0      		rjmp 2f
 744               		1:
 745 0006 220F      		lsl r18
 746               		2:
 747 0008 8A95      		dec r24
 748 000a 02F4      		brpl 1b
 749 000c 8091 0000 		lds r24,breathing_led_state
 750               	.LVL66:
 751 0010 822B      		or r24,r18
 752 0012 8093 0000 		sts breathing_led_state,r24
 256:../../tmk_core_custom/common/softpwm_led.c ****     LED_BIT_SET(breathing_led_once, index);
 753               		.loc 1 256 0
 754 0016 8091 0000 		lds r24,breathing_led_once
 755 001a 822B      		or r24,r18
 756 001c 8093 0000 		sts breathing_led_once,r24
 757 0020 0895      		ret
 758               		.cfi_endproc
 759               	.LFE24:
 761               		.section	.text.breathing_led_enable_all,"ax",@progbits
 762               	.global	breathing_led_enable_all
 764               	breathing_led_enable_all:
 765               	.LFB25:
 257:../../tmk_core_custom/common/softpwm_led.c **** }
 258:../../tmk_core_custom/common/softpwm_led.c **** 
 259:../../tmk_core_custom/common/softpwm_led.c **** void breathing_led_enable_all(void)
 260:../../tmk_core_custom/common/softpwm_led.c **** {
 766               		.loc 1 260 0
 767               		.cfi_startproc
 768               	/* prologue: function */
 769               	/* frame size = 0 */
 770               	/* stack size = 0 */
 771               	.L__stack_usage = 0
 772               	.LVL67:
 773 0000 8091 0000 		lds r24,breathing_led_state
 774               	.LVL68:
 775               	.LBB10:
 261:../../tmk_core_custom/common/softpwm_led.c ****     for (uint8_t i = 0; i < LED_COUNT; i++) {
 262:../../tmk_core_custom/common/softpwm_led.c ****         LED_BIT_SET(breathing_led_state, i);
 776               		.loc 1 262 0
 777 0004 8F61      		ori r24,lo8(31)
 778 0006 8093 0000 		sts breathing_led_state,r24
 779 000a 0895      		ret
 780               	.LBE10:
 781               		.cfi_endproc
 782               	.LFE25:
 784               		.section	.text.breathing_led_disable,"ax",@progbits
 785               	.global	breathing_led_disable
 787               	breathing_led_disable:
 788               	.LFB26:
 263:../../tmk_core_custom/common/softpwm_led.c ****     }
 264:../../tmk_core_custom/common/softpwm_led.c **** }
 265:../../tmk_core_custom/common/softpwm_led.c **** 
 266:../../tmk_core_custom/common/softpwm_led.c **** void breathing_led_disable(uint8_t index)
 267:../../tmk_core_custom/common/softpwm_led.c **** {
 789               		.loc 1 267 0
 790               		.cfi_startproc
 791               	.LVL69:
 792               	/* prologue: function */
 793               	/* frame size = 0 */
 794               	/* stack size = 0 */
 795               	.L__stack_usage = 0
 268:../../tmk_core_custom/common/softpwm_led.c ****     LED_BIT_CLEAR(breathing_led_state, index);
 796               		.loc 1 268 0
 797 0000 21E0      		ldi r18,lo8(1)
 798 0002 30E0      		ldi r19,0
 799 0004 00C0      		rjmp 2f
 800               		1:
 801 0006 220F      		lsl r18
 802               		2:
 803 0008 8A95      		dec r24
 804 000a 02F4      		brpl 1b
 805 000c 2095      		com r18
 806 000e 8091 0000 		lds r24,breathing_led_state
 807               	.LVL70:
 808 0012 8223      		and r24,r18
 809 0014 8093 0000 		sts breathing_led_state,r24
 810 0018 0895      		ret
 811               		.cfi_endproc
 812               	.LFE26:
 814               		.section	.text.breathing_led_disable_all,"ax",@progbits
 815               	.global	breathing_led_disable_all
 817               	breathing_led_disable_all:
 818               	.LFB27:
 269:../../tmk_core_custom/common/softpwm_led.c **** }
 270:../../tmk_core_custom/common/softpwm_led.c **** 
 271:../../tmk_core_custom/common/softpwm_led.c **** void breathing_led_disable_all(void)
 272:../../tmk_core_custom/common/softpwm_led.c **** {
 819               		.loc 1 272 0
 820               		.cfi_startproc
 821               	/* prologue: function */
 822               	/* frame size = 0 */
 823               	/* stack size = 0 */
 824               	.L__stack_usage = 0
 273:../../tmk_core_custom/common/softpwm_led.c ****     breathing_led_state = 0;
 825               		.loc 1 273 0
 826 0000 1092 0000 		sts breathing_led_state,__zero_reg__
 827 0004 0895      		ret
 828               		.cfi_endproc
 829               	.LFE27:
 831               		.section	.text.breathing_led_toggle,"ax",@progbits
 832               	.global	breathing_led_toggle
 834               	breathing_led_toggle:
 835               	.LFB28:
 274:../../tmk_core_custom/common/softpwm_led.c **** }
 275:../../tmk_core_custom/common/softpwm_led.c **** 
 276:../../tmk_core_custom/common/softpwm_led.c **** void breathing_led_toggle(uint8_t index)
 277:../../tmk_core_custom/common/softpwm_led.c **** {
 836               		.loc 1 277 0
 837               		.cfi_startproc
 838               	.LVL71:
 839               	/* prologue: function */
 840               	/* frame size = 0 */
 841               	/* stack size = 0 */
 842               	.L__stack_usage = 0
 278:../../tmk_core_custom/common/softpwm_led.c ****     LED_BIT_XOR(breathing_led_state, index);
 843               		.loc 1 278 0
 844 0000 21E0      		ldi r18,lo8(1)
 845 0002 30E0      		ldi r19,0
 846 0004 00C0      		rjmp 2f
 847               		1:
 848 0006 220F      		lsl r18
 849               		2:
 850 0008 8A95      		dec r24
 851 000a 02F4      		brpl 1b
 852 000c 8091 0000 		lds r24,breathing_led_state
 853               	.LVL72:
 854 0010 8227      		eor r24,r18
 855 0012 8093 0000 		sts breathing_led_state,r24
 856 0016 0895      		ret
 857               		.cfi_endproc
 858               	.LFE28:
 860               		.section	.text.breathing_led_toggle_all,"ax",@progbits
 861               	.global	breathing_led_toggle_all
 863               	breathing_led_toggle_all:
 864               	.LFB29:
 279:../../tmk_core_custom/common/softpwm_led.c **** }
 280:../../tmk_core_custom/common/softpwm_led.c **** 
 281:../../tmk_core_custom/common/softpwm_led.c **** void breathing_led_toggle_all(void)
 282:../../tmk_core_custom/common/softpwm_led.c **** {
 865               		.loc 1 282 0
 866               		.cfi_startproc
 867               	/* prologue: function */
 868               	/* frame size = 0 */
 869               	/* stack size = 0 */
 870               	.L__stack_usage = 0
 871               	.LVL73:
 872 0000 8091 0000 		lds r24,breathing_led_state
 873               	.LVL74:
 874               	.LBB11:
 283:../../tmk_core_custom/common/softpwm_led.c ****     for (uint8_t i = 0; i < LED_COUNT; i++) {
 284:../../tmk_core_custom/common/softpwm_led.c ****         LED_BIT_XOR(breathing_led_state, i);
 875               		.loc 1 284 0
 876 0004 9FE1      		ldi r25,lo8(31)
 877 0006 8927      		eor r24,r25
 878 0008 8093 0000 		sts breathing_led_state,r24
 879 000c 0895      		ret
 880               	.LBE11:
 881               		.cfi_endproc
 882               	.LFE29:
 884               		.section	.text.breathing_led_set_duration,"ax",@progbits
 885               	.global	breathing_led_set_duration
 887               	breathing_led_set_duration:
 888               	.LFB30:
 285:../../tmk_core_custom/common/softpwm_led.c ****     }
 286:../../tmk_core_custom/common/softpwm_led.c **** }
 287:../../tmk_core_custom/common/softpwm_led.c **** 
 288:../../tmk_core_custom/common/softpwm_led.c **** void breathing_led_set_duration(uint8_t dur)
 289:../../tmk_core_custom/common/softpwm_led.c **** {
 889               		.loc 1 289 0
 890               		.cfi_startproc
 891               	.LVL75:
 892               	/* prologue: function */
 893               	/* frame size = 0 */
 894               	/* stack size = 0 */
 895               	.L__stack_usage = 0
 290:../../tmk_core_custom/common/softpwm_led.c ****     breathing_led_duration = dur;
 896               		.loc 1 290 0
 897 0000 8093 0000 		sts breathing_led_duration,r24
 898 0004 0895      		ret
 899               		.cfi_endproc
 900               	.LFE30:
 902               		.section	.text.breathing_led_set_index,"ax",@progbits
 903               	.global	breathing_led_set_index
 905               	breathing_led_set_index:
 906               	.LFB31:
 291:../../tmk_core_custom/common/softpwm_led.c **** }
 292:../../tmk_core_custom/common/softpwm_led.c **** 
 293:../../tmk_core_custom/common/softpwm_led.c **** void breathing_led_set_index(uint8_t index, uint8_t value)
 294:../../tmk_core_custom/common/softpwm_led.c **** {
 907               		.loc 1 294 0
 908               		.cfi_startproc
 909               	.LVL76:
 910               	/* prologue: function */
 911               	/* frame size = 0 */
 912               	/* stack size = 0 */
 913               	.L__stack_usage = 0
 914 0000 9091 0000 		lds r25,breathing_led_direction
 295:../../tmk_core_custom/common/softpwm_led.c ****     if (value & 0x80) {
 296:../../tmk_core_custom/common/softpwm_led.c ****         LED_BIT_SET(breathing_led_direction, index);
 915               		.loc 1 296 0
 916 0004 21E0      		ldi r18,lo8(1)
 917 0006 30E0      		ldi r19,0
 918 0008 082E      		mov r0,r24
 919 000a 00C0      		rjmp 2f
 920               		1:
 921 000c 220F      		lsl r18
 922               		2:
 923 000e 0A94      		dec r0
 924 0010 02F4      		brpl 1b
 295:../../tmk_core_custom/common/softpwm_led.c ****     if (value & 0x80) {
 925               		.loc 1 295 0
 926 0012 67FF      		sbrs r22,7
 927 0014 00C0      		rjmp .L49
 928               		.loc 1 296 0
 929 0016 292B      		or r18,r25
 930 0018 00C0      		rjmp .L51
 931               	.L49:
 297:../../tmk_core_custom/common/softpwm_led.c ****     }
 298:../../tmk_core_custom/common/softpwm_led.c ****     else {
 299:../../tmk_core_custom/common/softpwm_led.c ****         LED_BIT_CLEAR(breathing_led_direction, index);
 932               		.loc 1 299 0
 933 001a 2095      		com r18
 934 001c 2923      		and r18,r25
 935               	.L51:
 936 001e 2093 0000 		sts breathing_led_direction,r18
 300:../../tmk_core_custom/common/softpwm_led.c ****     }
 301:../../tmk_core_custom/common/softpwm_led.c ****     breathing_led_index[index] = value & 0x7F;
 937               		.loc 1 301 0
 938 0022 E82F      		mov r30,r24
 939 0024 F0E0      		ldi r31,0
 940 0026 E050      		subi r30,lo8(-(breathing_led_index))
 941 0028 F040      		sbci r31,hi8(-(breathing_led_index))
 942 002a 6F77      		andi r22,lo8(127)
 943               	.LVL77:
 944 002c 6083      		st Z,r22
 945 002e 0895      		ret
 946               		.cfi_endproc
 947               	.LFE31:
 949               		.section	.text.breathing_led_set_index_all,"ax",@progbits
 950               	.global	breathing_led_set_index_all
 952               	breathing_led_set_index_all:
 953               	.LFB32:
 302:../../tmk_core_custom/common/softpwm_led.c **** }
 303:../../tmk_core_custom/common/softpwm_led.c **** 
 304:../../tmk_core_custom/common/softpwm_led.c **** void breathing_led_set_index_all(uint8_t value)
 305:../../tmk_core_custom/common/softpwm_led.c **** {
 954               		.loc 1 305 0
 955               		.cfi_startproc
 956               	.LVL78:
 957 0000 CF93      		push r28
 958               	.LCFI7:
 959               		.cfi_def_cfa_offset 3
 960               		.cfi_offset 28, -2
 961 0002 DF93      		push r29
 962               	.LCFI8:
 963               		.cfi_def_cfa_offset 4
 964               		.cfi_offset 29, -3
 965               	/* prologue: function */
 966               	/* frame size = 0 */
 967               	/* stack size = 2 */
 968               	.L__stack_usage = 2
 969 0004 D82F      		mov r29,r24
 970               	.LVL79:
 971               	.LBB12:
 306:../../tmk_core_custom/common/softpwm_led.c ****     for (uint8_t i = 0; i < LED_COUNT; i++) {
 972               		.loc 1 306 0
 973 0006 C0E0      		ldi r28,0
 974               	.LVL80:
 975               	.L54:
 307:../../tmk_core_custom/common/softpwm_led.c ****         breathing_led_set_index(i, value);
 976               		.loc 1 307 0 discriminator 2
 977 0008 6D2F      		mov r22,r29
 978 000a 8C2F      		mov r24,r28
 979 000c 0E94 0000 		call breathing_led_set_index
 980               	.LVL81:
 306:../../tmk_core_custom/common/softpwm_led.c ****     for (uint8_t i = 0; i < LED_COUNT; i++) {
 981               		.loc 1 306 0 discriminator 2
 982 0010 CF5F      		subi r28,lo8(-(1))
 983               	.LVL82:
 984 0012 C530      		cpi r28,lo8(5)
 985 0014 01F4      		brne .L54
 986               	/* epilogue start */
 987               	.LBE12:
 308:../../tmk_core_custom/common/softpwm_led.c ****     }
 309:../../tmk_core_custom/common/softpwm_led.c **** }
 988               		.loc 1 309 0
 989 0016 DF91      		pop r29
 990               	.LVL83:
 991 0018 CF91      		pop r28
 992               	.LVL84:
 993 001a 0895      		ret
 994               		.cfi_endproc
 995               	.LFE32:
 997               		.section	.text.__vector_17,"ax",@progbits
 998               	.global	__vector_17
 1000               	__vector_17:
 1001               	.LFB33:
 310:../../tmk_core_custom/common/softpwm_led.c **** 
 311:../../tmk_core_custom/common/softpwm_led.c **** #endif
 312:../../tmk_core_custom/common/softpwm_led.c **** 
 313:../../tmk_core_custom/common/softpwm_led.c **** #ifdef SOFTPWM_LED_TIMER3
 314:../../tmk_core_custom/common/softpwm_led.c **** ISR(TIMER3_COMPA_vect)
 315:../../tmk_core_custom/common/softpwm_led.c **** #else
 316:../../tmk_core_custom/common/softpwm_led.c **** ISR(TIMER1_COMPA_vect)
 317:../../tmk_core_custom/common/softpwm_led.c **** #endif
 318:../../tmk_core_custom/common/softpwm_led.c **** {
 1002               		.loc 1 318 0
 1003               		.cfi_startproc
 1004 0000 1F92      		push r1
 1005               	.LCFI9:
 1006               		.cfi_def_cfa_offset 3
 1007               		.cfi_offset 1, -2
 1008 0002 0F92      		push r0
 1009               	.LCFI10:
 1010               		.cfi_def_cfa_offset 4
 1011               		.cfi_offset 0, -3
 1012 0004 0FB6      		in r0,__SREG__
 1013 0006 0F92      		push r0
 1014 0008 1124      		clr __zero_reg__
 1015 000a EF92      		push r14
 1016               	.LCFI11:
 1017               		.cfi_def_cfa_offset 5
 1018               		.cfi_offset 14, -4
 1019 000c FF92      		push r15
 1020               	.LCFI12:
 1021               		.cfi_def_cfa_offset 6
 1022               		.cfi_offset 15, -5
 1023 000e 0F93      		push r16
 1024               	.LCFI13:
 1025               		.cfi_def_cfa_offset 7
 1026               		.cfi_offset 16, -6
 1027 0010 1F93      		push r17
 1028               	.LCFI14:
 1029               		.cfi_def_cfa_offset 8
 1030               		.cfi_offset 17, -7
 1031 0012 2F93      		push r18
 1032               	.LCFI15:
 1033               		.cfi_def_cfa_offset 9
 1034               		.cfi_offset 18, -8
 1035 0014 3F93      		push r19
 1036               	.LCFI16:
 1037               		.cfi_def_cfa_offset 10
 1038               		.cfi_offset 19, -9
 1039 0016 4F93      		push r20
 1040               	.LCFI17:
 1041               		.cfi_def_cfa_offset 11
 1042               		.cfi_offset 20, -10
 1043 0018 5F93      		push r21
 1044               	.LCFI18:
 1045               		.cfi_def_cfa_offset 12
 1046               		.cfi_offset 21, -11
 1047 001a 6F93      		push r22
 1048               	.LCFI19:
 1049               		.cfi_def_cfa_offset 13
 1050               		.cfi_offset 22, -12
 1051 001c 7F93      		push r23
 1052               	.LCFI20:
 1053               		.cfi_def_cfa_offset 14
 1054               		.cfi_offset 23, -13
 1055 001e 8F93      		push r24
 1056               	.LCFI21:
 1057               		.cfi_def_cfa_offset 15
 1058               		.cfi_offset 24, -14
 1059 0020 9F93      		push r25
 1060               	.LCFI22:
 1061               		.cfi_def_cfa_offset 16
 1062               		.cfi_offset 25, -15
 1063 0022 AF93      		push r26
 1064               	.LCFI23:
 1065               		.cfi_def_cfa_offset 17
 1066               		.cfi_offset 26, -16
 1067 0024 BF93      		push r27
 1068               	.LCFI24:
 1069               		.cfi_def_cfa_offset 18
 1070               		.cfi_offset 27, -17
 1071 0026 CF93      		push r28
 1072               	.LCFI25:
 1073               		.cfi_def_cfa_offset 19
 1074               		.cfi_offset 28, -18
 1075 0028 DF93      		push r29
 1076               	.LCFI26:
 1077               		.cfi_def_cfa_offset 20
 1078               		.cfi_offset 29, -19
 1079 002a EF93      		push r30
 1080               	.LCFI27:
 1081               		.cfi_def_cfa_offset 21
 1082               		.cfi_offset 30, -20
 1083 002c FF93      		push r31
 1084               	.LCFI28:
 1085               		.cfi_def_cfa_offset 22
 1086               		.cfi_offset 31, -21
 1087               	/* prologue: Signal */
 1088               	/* frame size = 0 */
 1089               	/* stack size = 21 */
 1090               	.L__stack_usage = 21
 319:../../tmk_core_custom/common/softpwm_led.c ****     static uint8_t pwm = 0;
 320:../../tmk_core_custom/common/softpwm_led.c ****     pwm++;
 1091               		.loc 1 320 0
 1092 002e 8091 0000 		lds r24,pwm.1958
 1093 0032 8F5F      		subi r24,lo8(-(1))
 1094 0034 8093 0000 		sts pwm.1958,r24
 1095               	.LVL85:
 1096 0038 00E0      		ldi r16,lo8(softpwm_led_ocr)
 1097 003a 10E0      		ldi r17,hi8(softpwm_led_ocr)
 1098 003c C0E0      		ldi r28,0
 1099 003e D0E0      		ldi r29,0
 1100               	.LVL86:
 1101               	.L60:
 1102 0040 FC2E      		mov r15,r28
 1103               	.LVL87:
 1104               	.LBB21:
 321:../../tmk_core_custom/common/softpwm_led.c ****     for (uint8_t i = 0; i < LED_COUNT; i++) {
 322:../../tmk_core_custom/common/softpwm_led.c ****         // LED on
 323:../../tmk_core_custom/common/softpwm_led.c ****         if (pwm == 0) {
 1105               		.loc 1 323 0
 1106 0042 8091 0000 		lds r24,pwm.1958
 1107 0046 8111      		cpse r24,__zero_reg__
 1108 0048 00C0      		rjmp .L56
 324:../../tmk_core_custom/common/softpwm_led.c ****             if (softpwm_led_ocr[i]) softpwm_led_on(i);
 1109               		.loc 1 324 0
 1110 004a F801      		movw r30,r16
 1111 004c 8081      		ld r24,Z
 1112 004e 8823      		tst r24
 1113 0050 01F0      		breq .L57
 1114               		.loc 1 324 0 is_stmt 0 discriminator 1
 1115 0052 8C2F      		mov r24,r28
 1116 0054 0E94 0000 		call softpwm_led_on
 1117               	.LVL88:
 1118               	.L57:
 1119 0058 FE01      		movw r30,r28
 1120 005a E050      		subi r30,lo8(-(softpwm_led_ocr_buff))
 1121 005c F040      		sbci r31,hi8(-(softpwm_led_ocr_buff))
 325:../../tmk_core_custom/common/softpwm_led.c ****             softpwm_led_ocr[i] = softpwm_led_ocr_buff[i];
 1122               		.loc 1 325 0 is_stmt 1
 1123 005e 8081      		ld r24,Z
 1124 0060 F801      		movw r30,r16
 1125 0062 8083      		st Z,r24
 1126               	.L56:
 326:../../tmk_core_custom/common/softpwm_led.c ****         }
 327:../../tmk_core_custom/common/softpwm_led.c ****         // LED off
 328:../../tmk_core_custom/common/softpwm_led.c ****         if (pwm == softpwm_led_ocr[i]) {
 1127               		.loc 1 328 0
 1128 0064 F801      		movw r30,r16
 1129 0066 8191      		ld r24,Z+
 1130 0068 8F01      		movw r16,r30
 1131 006a 9091 0000 		lds r25,pwm.1958
 1132 006e 9813      		cpse r25,r24
 1133 0070 00C0      		rjmp .L58
 329:../../tmk_core_custom/common/softpwm_led.c ****             softpwm_led_off(i);
 1134               		.loc 1 329 0
 1135 0072 8F2D      		mov r24,r15
 1136 0074 0E94 0000 		call softpwm_led_off
 1137               	.LVL89:
 1138               	.L58:
 1139 0078 2196      		adiw r28,1
 1140               	.LVL90:
 321:../../tmk_core_custom/common/softpwm_led.c ****     for (uint8_t i = 0; i < LED_COUNT; i++) {
 1141               		.loc 1 321 0
 1142 007a C530      		cpi r28,5
 1143 007c D105      		cpc r29,__zero_reg__
 1144 007e 01F4      		brne .L60
 1145               	.LBE21:
 330:../../tmk_core_custom/common/softpwm_led.c ****         }
 331:../../tmk_core_custom/common/softpwm_led.c ****     }
 332:../../tmk_core_custom/common/softpwm_led.c **** 
 333:../../tmk_core_custom/common/softpwm_led.c **** #if defined(FADING_LED_ENABLE) || defined(BREATHING_LED_ENABLE) || defined(CUSTOM_LED_ENABLE)
 334:../../tmk_core_custom/common/softpwm_led.c ****     static uint8_t counter = 0;
 335:../../tmk_core_custom/common/softpwm_led.c ****     if (++counter >= SOFTPWM_LED_FREQ) {
 1146               		.loc 1 335 0
 1147 0080 8091 0000 		lds r24,counter.1963
 1148 0084 8F5F      		subi r24,lo8(-(1))
 1149 0086 8093 0000 		sts counter.1963,r24
 1150 008a 8034      		cpi r24,lo8(64)
 1151 008c 00F4      		brsh .+2
 1152 008e 00C0      		rjmp .L55
 336:../../tmk_core_custom/common/softpwm_led.c ****         counter = 0;
 1153               		.loc 1 336 0
 1154 0090 1092 0000 		sts counter.1963,__zero_reg__
 1155               	.LBB22:
 1156               	.LBB23:
 337:../../tmk_core_custom/common/softpwm_led.c **** #ifdef FADING_LED_ENABLE
 338:../../tmk_core_custom/common/softpwm_led.c ****         fading_led_proc();
 339:../../tmk_core_custom/common/softpwm_led.c **** #endif
 340:../../tmk_core_custom/common/softpwm_led.c **** #ifdef BREATHING_LED_ENABLE
 341:../../tmk_core_custom/common/softpwm_led.c ****         breathing_led_proc();
 342:../../tmk_core_custom/common/softpwm_led.c **** #endif
 343:../../tmk_core_custom/common/softpwm_led.c **** #ifdef CUSTOM_LED_ENABLE
 344:../../tmk_core_custom/common/softpwm_led.c ****         softpwm_led_custom();
 345:../../tmk_core_custom/common/softpwm_led.c **** #endif
 346:../../tmk_core_custom/common/softpwm_led.c ****     }
 347:../../tmk_core_custom/common/softpwm_led.c **** #endif
 348:../../tmk_core_custom/common/softpwm_led.c **** }
 349:../../tmk_core_custom/common/softpwm_led.c **** 
 350:../../tmk_core_custom/common/softpwm_led.c **** #ifdef FADING_LED_ENABLE
 351:../../tmk_core_custom/common/softpwm_led.c **** void fading_led_proc(void)
 352:../../tmk_core_custom/common/softpwm_led.c **** {
 353:../../tmk_core_custom/common/softpwm_led.c ****     static uint8_t step = 0;
 354:../../tmk_core_custom/common/softpwm_led.c ****     if (fading_led_state) {
 1157               		.loc 1 354 0
 1158 0094 E090 0000 		lds r14,fading_led_state
 1159 0098 E110      		cpse r14,__zero_reg__
 1160 009a 00C0      		rjmp .L62
 1161               	.LVL91:
 1162               	.L65:
 1163               	.LBE23:
 1164               	.LBE22:
 1165               	.LBB26:
 1166               	.LBB27:
 355:../../tmk_core_custom/common/softpwm_led.c ****         if (++step > fading_led_duration) {
 356:../../tmk_core_custom/common/softpwm_led.c ****             step = 0;
 357:../../tmk_core_custom/common/softpwm_led.c ****             for (uint8_t i = 0; i < LED_COUNT; i++) {
 358:../../tmk_core_custom/common/softpwm_led.c ****                 if (fading_led_state & LED_BIT(i)) {
 359:../../tmk_core_custom/common/softpwm_led.c ****                     if (fading_led_delay[i]) {
 360:../../tmk_core_custom/common/softpwm_led.c ****                         fading_led_delay[i]--;
 361:../../tmk_core_custom/common/softpwm_led.c ****                     }
 362:../../tmk_core_custom/common/softpwm_led.c ****                     else {
 363:../../tmk_core_custom/common/softpwm_led.c ****                         if (fading_led_direction & LED_BIT(i)) {
 364:../../tmk_core_custom/common/softpwm_led.c ****                             softpwm_led_decrease(i, 1);
 365:../../tmk_core_custom/common/softpwm_led.c ****                         }
 366:../../tmk_core_custom/common/softpwm_led.c ****                         else {
 367:../../tmk_core_custom/common/softpwm_led.c ****                             softpwm_led_increase(i, 1);
 368:../../tmk_core_custom/common/softpwm_led.c ****                         }
 369:../../tmk_core_custom/common/softpwm_led.c ****                     }
 370:../../tmk_core_custom/common/softpwm_led.c ****                 }
 371:../../tmk_core_custom/common/softpwm_led.c ****             }
 372:../../tmk_core_custom/common/softpwm_led.c **** #ifdef CUSTOM_LED_ENABLE
 373:../../tmk_core_custom/common/softpwm_led.c ****             fading_led_custom(softpwm_led_ocr);
 374:../../tmk_core_custom/common/softpwm_led.c **** #endif
 375:../../tmk_core_custom/common/softpwm_led.c ****         }
 376:../../tmk_core_custom/common/softpwm_led.c ****     }
 377:../../tmk_core_custom/common/softpwm_led.c **** }
 378:../../tmk_core_custom/common/softpwm_led.c **** #endif
 379:../../tmk_core_custom/common/softpwm_led.c **** 
 380:../../tmk_core_custom/common/softpwm_led.c **** #ifdef BREATHING_LED_ENABLE
 381:../../tmk_core_custom/common/softpwm_led.c **** void breathing_led_proc(void)
 382:../../tmk_core_custom/common/softpwm_led.c **** {
 383:../../tmk_core_custom/common/softpwm_led.c ****     static uint8_t step = 0;
 384:../../tmk_core_custom/common/softpwm_led.c ****     if (breathing_led_state) {
 1167               		.loc 1 384 0
 1168 009c F090 0000 		lds r15,breathing_led_state
 1169 00a0 F110      		cpse r15,__zero_reg__
 1170 00a2 00C0      		rjmp .L63
 1171 00a4 00C0      		rjmp .L55
 1172               	.LVL92:
 1173               	.L62:
 1174               	.LBE27:
 1175               	.LBE26:
 1176               	.LBB31:
 1177               	.LBB25:
 355:../../tmk_core_custom/common/softpwm_led.c ****         if (++step > fading_led_duration) {
 1178               		.loc 1 355 0
 1179 00a6 8091 0000 		lds r24,step.1967
 1180 00aa 8F5F      		subi r24,lo8(-(1))
 1181 00ac 8093 0000 		sts step.1967,r24
 1182 00b0 9091 0000 		lds r25,fading_led_duration
 1183 00b4 9817      		cp r25,r24
 1184 00b6 00F4      		brsh .L65
 356:../../tmk_core_custom/common/softpwm_led.c ****             step = 0;
 1185               		.loc 1 356 0
 1186 00b8 1092 0000 		sts step.1967,__zero_reg__
 1187               	.LVL93:
 1188 00bc 00E0      		ldi r16,lo8(fading_led_delay)
 1189 00be 10E0      		ldi r17,hi8(fading_led_delay)
 1190 00c0 C0E0      		ldi r28,0
 1191 00c2 D0E0      		ldi r29,0
 1192               	.LVL94:
 1193               	.LBB24:
 358:../../tmk_core_custom/common/softpwm_led.c ****                 if (fading_led_state & LED_BIT(i)) {
 1194               		.loc 1 358 0
 1195 00c4 F12C      		mov r15,__zero_reg__
 1196               	.LVL95:
 1197               	.L69:
 1198 00c6 C701      		movw r24,r14
 1199 00c8 0C2E      		mov r0,r28
 1200 00ca 00C0      		rjmp 2f
 1201               		1:
 1202 00cc 9695      		lsr r25
 1203 00ce 8795      		ror r24
 1204               		2:
 1205 00d0 0A94      		dec r0
 1206 00d2 02F4      		brpl 1b
 1207 00d4 80FF      		sbrs r24,0
 1208 00d6 00C0      		rjmp .L66
 359:../../tmk_core_custom/common/softpwm_led.c ****                     if (fading_led_delay[i]) {
 1209               		.loc 1 359 0
 1210 00d8 F801      		movw r30,r16
 1211 00da 8081      		ld r24,Z
 1212 00dc 8823      		tst r24
 1213 00de 01F0      		breq .L67
 360:../../tmk_core_custom/common/softpwm_led.c ****                         fading_led_delay[i]--;
 1214               		.loc 1 360 0
 1215 00e0 8150      		subi r24,lo8(-(-1))
 1216 00e2 8083      		st Z,r24
 1217 00e4 00C0      		rjmp .L66
 1218               	.L67:
 363:../../tmk_core_custom/common/softpwm_led.c ****                         if (fading_led_direction & LED_BIT(i)) {
 1219               		.loc 1 363 0
 1220 00e6 8091 0000 		lds r24,fading_led_direction
 1221 00ea 90E0      		ldi r25,0
 1222 00ec 0C2E      		mov r0,r28
 1223 00ee 00C0      		rjmp 2f
 1224               		1:
 1225 00f0 9695      		lsr r25
 1226 00f2 8795      		ror r24
 1227               		2:
 1228 00f4 0A94      		dec r0
 1229 00f6 02F4      		brpl 1b
 364:../../tmk_core_custom/common/softpwm_led.c ****                             softpwm_led_decrease(i, 1);
 1230               		.loc 1 364 0
 1231 00f8 61E0      		ldi r22,lo8(1)
 363:../../tmk_core_custom/common/softpwm_led.c ****                         if (fading_led_direction & LED_BIT(i)) {
 1232               		.loc 1 363 0
 1233 00fa 80FF      		sbrs r24,0
 1234 00fc 00C0      		rjmp .L68
 364:../../tmk_core_custom/common/softpwm_led.c ****                             softpwm_led_decrease(i, 1);
 1235               		.loc 1 364 0
 1236 00fe 8C2F      		mov r24,r28
 1237 0100 0E94 0000 		call softpwm_led_decrease
 1238               	.LVL96:
 1239 0104 00C0      		rjmp .L66
 1240               	.L68:
 367:../../tmk_core_custom/common/softpwm_led.c ****                             softpwm_led_increase(i, 1);
 1241               		.loc 1 367 0
 1242 0106 8C2F      		mov r24,r28
 1243 0108 0E94 0000 		call softpwm_led_increase
 1244               	.LVL97:
 1245               	.L66:
 1246 010c 2196      		adiw r28,1
 1247               	.LVL98:
 1248 010e 0F5F      		subi r16,-1
 1249 0110 1F4F      		sbci r17,-1
 357:../../tmk_core_custom/common/softpwm_led.c ****             for (uint8_t i = 0; i < LED_COUNT; i++) {
 1250               		.loc 1 357 0
 1251 0112 C530      		cpi r28,5
 1252 0114 D105      		cpc r29,__zero_reg__
 1253 0116 01F4      		brne .L69
 1254 0118 00C0      		rjmp .L65
 1255               	.LVL99:
 1256               	.L63:
 1257               	.LBE24:
 1258               	.LBE25:
 1259               	.LBE31:
 1260               	.LBB32:
 1261               	.LBB30:
 385:../../tmk_core_custom/common/softpwm_led.c ****         if (++step > breathing_led_duration) {
 1262               		.loc 1 385 0
 1263 011a 8091 0000 		lds r24,step.1975
 1264 011e 8F5F      		subi r24,lo8(-(1))
 1265 0120 8093 0000 		sts step.1975,r24
 1266 0124 9091 0000 		lds r25,breathing_led_duration
 1267 0128 9817      		cp r25,r24
 1268 012a 00F0      		brlo .+2
 1269 012c 00C0      		rjmp .L55
 386:../../tmk_core_custom/common/softpwm_led.c ****             step = 0;
 1270               		.loc 1 386 0
 1271 012e 1092 0000 		sts step.1975,__zero_reg__
 1272               	.LVL100:
 1273 0132 1091 0000 		lds r17,breathing_led_direction
 1274 0136 0091 0000 		lds r16,breathing_led_once
 1275 013a A0E0      		ldi r26,lo8(breathing_led_index)
 1276 013c B0E0      		ldi r27,hi8(breathing_led_index)
 1277 013e 80E0      		ldi r24,0
 1278 0140 90E0      		ldi r25,0
 1279               	.LBB28:
 387:../../tmk_core_custom/common/softpwm_led.c ****             for (uint8_t i = 0; i < LED_COUNT; i++) {
 388:../../tmk_core_custom/common/softpwm_led.c ****                 if (breathing_led_state & LED_BIT(i)) {
 389:../../tmk_core_custom/common/softpwm_led.c ****                     softpwm_led_ocr_buff[i] = pgm_read_byte(&breathing_table[breathing_led_index[i]
 390:../../tmk_core_custom/common/softpwm_led.c ****                     if (breathing_led_direction & LED_BIT(i)) {
 391:../../tmk_core_custom/common/softpwm_led.c ****                         if (breathing_led_index[i] == 0) {
 392:../../tmk_core_custom/common/softpwm_led.c ****                             LED_BIT_CLEAR(breathing_led_direction, i);
 393:../../tmk_core_custom/common/softpwm_led.c ****                             if (breathing_led_once & LED_BIT(i)) {
 394:../../tmk_core_custom/common/softpwm_led.c ****                                 LED_BIT_CLEAR(breathing_led_state, i);
 395:../../tmk_core_custom/common/softpwm_led.c ****                                 LED_BIT_CLEAR(breathing_led_once, i);
 396:../../tmk_core_custom/common/softpwm_led.c ****                             }
 397:../../tmk_core_custom/common/softpwm_led.c ****                         }
 398:../../tmk_core_custom/common/softpwm_led.c ****                         else {
 399:../../tmk_core_custom/common/softpwm_led.c ****                             breathing_led_index[i]--;
 400:../../tmk_core_custom/common/softpwm_led.c ****                         }
 401:../../tmk_core_custom/common/softpwm_led.c **** 
 402:../../tmk_core_custom/common/softpwm_led.c ****                     }
 403:../../tmk_core_custom/common/softpwm_led.c ****                     else {
 404:../../tmk_core_custom/common/softpwm_led.c ****                         if (breathing_led_index[i] == 127) {
 405:../../tmk_core_custom/common/softpwm_led.c ****                             LED_BIT_SET(breathing_led_direction, i);
 1280               		.loc 1 405 0
 1281 0142 41E0      		ldi r20,lo8(1)
 1282 0144 50E0      		ldi r21,0
 1283               	.LVL101:
 1284               	.L77:
 388:../../tmk_core_custom/common/softpwm_led.c ****                 if (breathing_led_state & LED_BIT(i)) {
 1285               		.loc 1 388 0
 1286 0146 2F2D      		mov r18,r15
 1287 0148 30E0      		ldi r19,0
 1288 014a 082E      		mov r0,r24
 1289 014c 00C0      		rjmp 2f
 1290               		1:
 1291 014e 3695      		lsr r19
 1292 0150 2795      		ror r18
 1293               		2:
 1294 0152 0A94      		dec r0
 1295 0154 02F4      		brpl 1b
 1296 0156 20FF      		sbrs r18,0
 1297 0158 00C0      		rjmp .L71
 1298               	.LBB29:
 389:../../tmk_core_custom/common/softpwm_led.c ****                     softpwm_led_ocr_buff[i] = pgm_read_byte(&breathing_table[breathing_led_index[i]
 1299               		.loc 1 389 0
 1300 015a 6C91      		ld r22,X
 1301               	.LVL102:
 1302 015c E62F      		mov r30,r22
 1303 015e F0E0      		ldi r31,0
 1304 0160 E050      		subi r30,lo8(-(breathing_table))
 1305 0162 F040      		sbci r31,hi8(-(breathing_table))
 1306               	/* #APP */
 1307               	 ;  389 "../../tmk_core_custom/common/softpwm_led.c" 1
 1308 0164 E491      		lpm r30, Z
 1309               		
 1310               	 ;  0 "" 2
 1311               	.LVL103:
 1312               	/* #NOAPP */
 1313 0166 EC01      		movw r28,r24
 1314 0168 C050      		subi r28,lo8(-(softpwm_led_ocr_buff))
 1315 016a D040      		sbci r29,hi8(-(softpwm_led_ocr_buff))
 1316               	.LBE29:
 1317 016c E883      		st Y,r30
 390:../../tmk_core_custom/common/softpwm_led.c ****                     if (breathing_led_direction & LED_BIT(i)) {
 1318               		.loc 1 390 0
 1319 016e 212F      		mov r18,r17
 1320 0170 30E0      		ldi r19,0
 1321 0172 082E      		mov r0,r24
 1322 0174 00C0      		rjmp 2f
 1323               		1:
 1324 0176 3695      		lsr r19
 1325 0178 2795      		ror r18
 1326               		2:
 1327 017a 0A94      		dec r0
 1328 017c 02F4      		brpl 1b
 1329 017e 3C91      		ld r19,X
 1330 0180 20FF      		sbrs r18,0
 1331 0182 00C0      		rjmp .L72
 391:../../tmk_core_custom/common/softpwm_led.c ****                         if (breathing_led_index[i] == 0) {
 1332               		.loc 1 391 0
 1333 0184 6111      		cpse r22,__zero_reg__
 1334 0186 00C0      		rjmp .L73
 392:../../tmk_core_custom/common/softpwm_led.c ****                             LED_BIT_CLEAR(breathing_led_direction, i);
 1335               		.loc 1 392 0
 1336 0188 BA01      		movw r22,r20
 1337               	.LVL104:
 1338 018a 082E      		mov r0,r24
 1339 018c 00C0      		rjmp 2f
 1340               		1:
 1341 018e 660F      		lsl r22
 1342               		2:
 1343 0190 0A94      		dec r0
 1344 0192 02F4      		brpl 1b
 1345 0194 6095      		com r22
 1346 0196 1623      		and r17,r22
 393:../../tmk_core_custom/common/softpwm_led.c ****                             if (breathing_led_once & LED_BIT(i)) {
 1347               		.loc 1 393 0
 1348 0198 202F      		mov r18,r16
 1349 019a 30E0      		ldi r19,0
 1350               	.LVL105:
 1351 019c 082E      		mov r0,r24
 1352 019e 00C0      		rjmp 2f
 1353               		1:
 1354 01a0 3695      		lsr r19
 1355 01a2 2795      		ror r18
 1356               		2:
 1357 01a4 0A94      		dec r0
 1358 01a6 02F4      		brpl 1b
 1359 01a8 20FF      		sbrs r18,0
 1360 01aa 00C0      		rjmp .L71
 395:../../tmk_core_custom/common/softpwm_led.c ****                                 LED_BIT_CLEAR(breathing_led_once, i);
 1361               		.loc 1 395 0
 1362 01ac 0623      		and r16,r22
 394:../../tmk_core_custom/common/softpwm_led.c ****                                 LED_BIT_CLEAR(breathing_led_state, i);
 1363               		.loc 1 394 0
 1364 01ae F622      		and r15,r22
 1365 01b0 00C0      		rjmp .L71
 1366               	.LVL106:
 1367               	.L73:
 399:../../tmk_core_custom/common/softpwm_led.c ****                             breathing_led_index[i]--;
 1368               		.loc 1 399 0
 1369 01b2 6150      		subi r22,lo8(-(-1))
 1370 01b4 6C93      		st X,r22
 1371 01b6 00C0      		rjmp .L71
 1372               	.L72:
 404:../../tmk_core_custom/common/softpwm_led.c ****                         if (breathing_led_index[i] == 127) {
 1373               		.loc 1 404 0
 1374 01b8 6F37      		cpi r22,lo8(127)
 1375 01ba 01F4      		brne .L75
 1376               		.loc 1 405 0
 1377 01bc 9A01      		movw r18,r20
 1378 01be 082E      		mov r0,r24
 1379 01c0 00C0      		rjmp 2f
 1380               		1:
 1381 01c2 220F      		lsl r18
 1382               		2:
 1383 01c4 0A94      		dec r0
 1384 01c6 02F4      		brpl 1b
 1385 01c8 122B      		or r17,r18
 1386 01ca 00C0      		rjmp .L71
 1387               	.L75:
 406:../../tmk_core_custom/common/softpwm_led.c ****                         }
 407:../../tmk_core_custom/common/softpwm_led.c ****                         else {
 408:../../tmk_core_custom/common/softpwm_led.c ****                             breathing_led_index[i]++;
 1388               		.loc 1 408 0
 1389 01cc 21E0      		ldi r18,lo8(1)
 1390 01ce 230F      		add r18,r19
 1391 01d0 2C93      		st X,r18
 1392               	.LVL107:
 1393               	.L71:
 1394 01d2 0196      		adiw r24,1
 1395               	.LVL108:
 1396 01d4 1196      		adiw r26,1
 387:../../tmk_core_custom/common/softpwm_led.c ****             for (uint8_t i = 0; i < LED_COUNT; i++) {
 1397               		.loc 1 387 0
 1398 01d6 8530      		cpi r24,5
 1399 01d8 9105      		cpc r25,__zero_reg__
 1400 01da 01F0      		breq .+2
 1401 01dc 00C0      		rjmp .L77
 1402 01de F092 0000 		sts breathing_led_state,r15
 1403 01e2 1093 0000 		sts breathing_led_direction,r17
 1404 01e6 0093 0000 		sts breathing_led_once,r16
 1405               	.LVL109:
 1406               	.L55:
 1407               	/* epilogue start */
 1408               	.LBE28:
 1409               	.LBE30:
 1410               	.LBE32:
 348:../../tmk_core_custom/common/softpwm_led.c **** }
 1411               		.loc 1 348 0
 1412 01ea FF91      		pop r31
 1413 01ec EF91      		pop r30
 1414 01ee DF91      		pop r29
 1415 01f0 CF91      		pop r28
 1416 01f2 BF91      		pop r27
 1417 01f4 AF91      		pop r26
 1418 01f6 9F91      		pop r25
 1419 01f8 8F91      		pop r24
 1420 01fa 7F91      		pop r23
 1421 01fc 6F91      		pop r22
 1422 01fe 5F91      		pop r21
 1423 0200 4F91      		pop r20
 1424 0202 3F91      		pop r19
 1425 0204 2F91      		pop r18
 1426 0206 1F91      		pop r17
 1427 0208 0F91      		pop r16
 1428 020a FF90      		pop r15
 1429 020c EF90      		pop r14
 1430 020e 0F90      		pop r0
 1431 0210 0FBE      		out __SREG__,r0
 1432 0212 0F90      		pop r0
 1433 0214 1F90      		pop r1
 1434 0216 1895      		reti
 1435               		.cfi_endproc
 1436               	.LFE33:
 1438               		.section	.bss.step.1975,"aw",@nobits
 1441               	step.1975:
 1442 0000 00        		.zero	1
 1443               		.section	.bss.step.1967,"aw",@nobits
 1446               	step.1967:
 1447 0000 00        		.zero	1
 1448               		.section	.bss.counter.1963,"aw",@nobits
 1451               	counter.1963:
 1452 0000 00        		.zero	1
 1453               		.section	.bss.pwm.1958,"aw",@nobits
 1456               	pwm.1958:
 1457 0000 00        		.zero	1
 1458               		.section	.bss.breathing_led_direction,"aw",@nobits
 1461               	breathing_led_direction:
 1462 0000 00        		.zero	1
 1463               		.section	.bss.breathing_led_index,"aw",@nobits
 1466               	breathing_led_index:
 1467 0000 0000 0000 		.zero	5
 1467      00
 1468               		.section	.bss.breathing_led_duration,"aw",@nobits
 1471               	breathing_led_duration:
 1472 0000 00        		.zero	1
 1473               		.section	.bss.breathing_led_once,"aw",@nobits
 1476               	breathing_led_once:
 1477 0000 00        		.zero	1
 1478               		.section	.bss.breathing_led_state,"aw",@nobits
 1481               	breathing_led_state:
 1482 0000 00        		.zero	1
 1483               		.section	.progmem.data.breathing_table,"a",@progbits
 1486               	breathing_table:
 1487 0000 00        		.byte	0
 1488 0001 00        		.byte	0
 1489 0002 00        		.byte	0
 1490 0003 00        		.byte	0
 1491 0004 00        		.byte	0
 1492 0005 00        		.byte	0
 1493 0006 00        		.byte	0
 1494 0007 00        		.byte	0
 1495 0008 00        		.byte	0
 1496 0009 00        		.byte	0
 1497 000a 01        		.byte	1
 1498 000b 01        		.byte	1
 1499 000c 01        		.byte	1
 1500 000d 02        		.byte	2
 1501 000e 02        		.byte	2
 1502 000f 02        		.byte	2
 1503 0010 03        		.byte	3
 1504 0011 03        		.byte	3
 1505 0012 04        		.byte	4
 1506 0013 04        		.byte	4
 1507 0014 05        		.byte	5
 1508 0015 05        		.byte	5
 1509 0016 06        		.byte	6
 1510 0017 06        		.byte	6
 1511 0018 07        		.byte	7
 1512 0019 08        		.byte	8
 1513 001a 08        		.byte	8
 1514 001b 09        		.byte	9
 1515 001c 0A        		.byte	10
 1516 001d 0B        		.byte	11
 1517 001e 0B        		.byte	11
 1518 001f 0C        		.byte	12
 1519 0020 0D        		.byte	13
 1520 0021 0E        		.byte	14
 1521 0022 0F        		.byte	15
 1522 0023 10        		.byte	16
 1523 0024 11        		.byte	17
 1524 0025 12        		.byte	18
 1525 0026 13        		.byte	19
 1526 0027 15        		.byte	21
 1527 0028 16        		.byte	22
 1528 0029 17        		.byte	23
 1529 002a 19        		.byte	25
 1530 002b 1A        		.byte	26
 1531 002c 1B        		.byte	27
 1532 002d 1D        		.byte	29
 1533 002e 1E        		.byte	30
 1534 002f 20        		.byte	32
 1535 0030 22        		.byte	34
 1536 0031 23        		.byte	35
 1537 0032 25        		.byte	37
 1538 0033 27        		.byte	39
 1539 0034 29        		.byte	41
 1540 0035 2B        		.byte	43
 1541 0036 2D        		.byte	45
 1542 0037 2F        		.byte	47
 1543 0038 31        		.byte	49
 1544 0039 33        		.byte	51
 1545 003a 35        		.byte	53
 1546 003b 38        		.byte	56
 1547 003c 3A        		.byte	58
 1548 003d 3D        		.byte	61
 1549 003e 3F        		.byte	63
 1550 003f 42        		.byte	66
 1551 0040 44        		.byte	68
 1552 0041 47        		.byte	71
 1553 0042 4A        		.byte	74
 1554 0043 4D        		.byte	77
 1555 0044 50        		.byte	80
 1556 0045 53        		.byte	83
 1557 0046 56        		.byte	86
 1558 0047 59        		.byte	89
 1559 0048 5C        		.byte	92
 1560 0049 5F        		.byte	95
 1561 004a 62        		.byte	98
 1562 004b 66        		.byte	102
 1563 004c 69        		.byte	105
 1564 004d 6C        		.byte	108
 1565 004e 70        		.byte	112
 1566 004f 74        		.byte	116
 1567 0050 77        		.byte	119
 1568 0051 7B        		.byte	123
 1569 0052 7E        		.byte	126
 1570 0053 82        		.byte	-126
 1571 0054 86        		.byte	-122
 1572 0055 8A        		.byte	-118
 1573 0056 8E        		.byte	-114
 1574 0057 91        		.byte	-111
 1575 0058 95        		.byte	-107
 1576 0059 99        		.byte	-103
 1577 005a 9D        		.byte	-99
 1578 005b A1        		.byte	-95
 1579 005c A5        		.byte	-91
 1580 005d A9        		.byte	-87
 1581 005e AD        		.byte	-83
 1582 005f B0        		.byte	-80
 1583 0060 B4        		.byte	-76
 1584 0061 B8        		.byte	-72
 1585 0062 BC        		.byte	-68
 1586 0063 C0        		.byte	-64
 1587 0064 C3        		.byte	-61
 1588 0065 C7        		.byte	-57
 1589 0066 CB        		.byte	-53
 1590 0067 CE        		.byte	-50
 1591 0068 D2        		.byte	-46
 1592 0069 D5        		.byte	-43
 1593 006a D8        		.byte	-40
 1594 006b DB        		.byte	-37
 1595 006c DF        		.byte	-33
 1596 006d E2        		.byte	-30
 1597 006e E4        		.byte	-28
 1598 006f E7        		.byte	-25
 1599 0070 EA        		.byte	-22
 1600 0071 EC        		.byte	-20
 1601 0072 EF        		.byte	-17
 1602 0073 F1        		.byte	-15
 1603 0074 F3        		.byte	-13
 1604 0075 F5        		.byte	-11
 1605 0076 F7        		.byte	-9
 1606 0077 F8        		.byte	-8
 1607 0078 FA        		.byte	-6
 1608 0079 FB        		.byte	-5
 1609 007a FC        		.byte	-4
 1610 007b FD        		.byte	-3
 1611 007c FE        		.byte	-2
 1612 007d FF        		.byte	-1
 1613 007e FF        		.byte	-1
 1614 007f FF        		.byte	-1
 1615               		.section	.bss.fading_led_delay,"aw",@nobits
 1618               	fading_led_delay:
 1619 0000 0000 0000 		.zero	5
 1619      00
 1620               		.section	.bss.fading_led_duration,"aw",@nobits
 1623               	fading_led_duration:
 1624 0000 00        		.zero	1
 1625               		.section	.bss.fading_led_direction,"aw",@nobits
 1628               	fading_led_direction:
 1629 0000 00        		.zero	1
 1630               		.section	.bss.fading_led_state,"aw",@nobits
 1633               	fading_led_state:
 1634 0000 00        		.zero	1
 1635               		.section	.bss.softpwm_led_ocr_buff,"aw",@nobits
 1638               	softpwm_led_ocr_buff:
 1639 0000 0000 0000 		.zero	5
 1639      00
 1640               		.section	.bss.softpwm_led_ocr,"aw",@nobits
 1643               	softpwm_led_ocr:
 1644 0000 0000 0000 		.zero	5
 1644      00
 1645               		.section	.bss.softpwm_led_state,"aw",@nobits
 1648               	softpwm_led_state:
 1649 0000 00        		.zero	1
 1650               		.text
 1651               	.Letext0:
 1652               		.file 2 "/usr/local/CrossPack-AVR-20131216/avr/include/stdint.h"
 1653               		.file 3 "../../tmk_core_custom/common/led.h"
 1654               		.file 4 "../../tmk_core_custom/common/softpwm_led.h"